Component: ARM Compiler 5.06 update 5 (build 528) Tool: armlink [4d35e2]

==============================================================================

Section Cross References

    button_process_task.o(i.vButtonProcessTask) refers to queue.o(i.xQueueGenericCreate) for xQueueGenericCreate
    button_process_task.o(i.vButtonProcessTask) refers to tasks.o(i.vTaskDelay) for vTaskDelay
    button_process_task.o(i.vButtonProcessTask) refers to queue.o(i.xQueueReceive) for xQueueReceive
    button_process_task.o(i.vButtonProcessTask) refers to button_operation.o(i.vButtonValueProcess) for vButtonValueProcess
    button_process_task.o(i.vButtonProcessTask) refers to button_process_task.o(.data) for qButtonProcess
    dht11_task.o(i.vDht11Task) refers to dht11_operation.o(i.vDht11Init) for vDht11Init
    dht11_task.o(i.vDht11Task) refers to cmsis_os2.o(i.osDelay) for osDelay
    dht11_task.o(i.vDht11Task) refers to dht11_operation.o(i.vDht11RefreshData) for vDht11RefreshData
    led_task.o(i.vLedTask) refers to led_operation.o(i.vLedInit) for vLedInit
    led_task.o(i.vLedTask) refers to queue.o(i.xQueueGenericCreate) for xQueueGenericCreate
    led_task.o(i.vLedTask) refers to tasks.o(i.vTaskDelay) for vTaskDelay
    led_task.o(i.vLedTask) refers to queue.o(i.xQueueReceive) for xQueueReceive
    led_task.o(i.vLedTask) refers to led_operation.o(i.vLedOperationParamUpdate) for vLedOperationParamUpdate
    led_task.o(i.vLedTask) refers to led_operation.o(i.vLedOperationExecute) for vLedOperationExecute
    led_task.o(i.vLedTask) refers to led_task.o(.data) for qLedParamSet
    loop_task.o(i.vLoopTask) refers to button_operation.o(i.vButtonInit) for vButtonInit
    loop_task.o(i.vLoopTask) refers to tasks.o(i.vTaskDelay) for vTaskDelay
    loop_task.o(i.vLoopTask) refers to button_operation.o(i.vButtonScan) for vButtonScan
    oled_task.o(i.vOledTask) refers to oled_operation.o(i.vUiInit) for vUiInit
    oled_task.o(i.vOledTask) refers to oled_operation.o(i.vOledInit) for vOledInit
    oled_task.o(i.vOledTask) refers to queue.o(i.xQueueGenericCreate) for xQueueGenericCreate
    oled_task.o(i.vOledTask) refers to tasks.o(i.vTaskDelay) for vTaskDelay
    oled_task.o(i.vOledTask) refers to queue.o(i.xQueueReceive) for xQueueReceive
    oled_task.o(i.vOledTask) refers to oled_operation.o(i.vUiClearFrame) for vUiClearFrame
    oled_task.o(i.vOledTask) refers to oled_operation.o(i.vUiSetCurrentFrame) for vUiSetCurrentFrame
    oled_task.o(i.vOledTask) refers to oled_operation.o(i.vOledRefreshCurrentFrame) for vOledRefreshCurrentFrame
    oled_task.o(i.vOledTask) refers to oled_task.o(.data) for qUiParamSet
    uart_task.o(i.vUartCmdInterpreterTask) refers to cmd_interpreter_operation.o(i.vCmdInterpreterInit) for vCmdInterpreterInit
    uart_task.o(i.vUartCmdInterpreterTask) refers to tasks.o(i.vTaskDelay) for vTaskDelay
    uart_task.o(i.vUartCmdInterpreterTask) refers to queue.o(i.xQueueReceive) for xQueueReceive
    uart_task.o(i.vUartCmdInterpreterTask) refers to cmd_interpreter_operation.o(i.vCmdInterpreterOperationExecute) for vCmdInterpreterOperationExecute
    uart_task.o(i.vUartCmdInterpreterTask) refers to uart_task.o(.data) for qUartGetCmdLineQueue
    uart_task.o(i.vUartRxTask) refers to queue.o(i.xQueueGenericCreate) for xQueueGenericCreate
    uart_task.o(i.vUartRxTask) refers to uart_operation.o(i.vUartInit) for vUartInit
    uart_task.o(i.vUartRxTask) refers to tasks.o(i.vTaskDelay) for vTaskDelay
    uart_task.o(i.vUartRxTask) refers to uart_operation.o(i.vUartGetCmdLine) for vUartGetCmdLine
    uart_task.o(i.vUartRxTask) refers to uart_task.o(.data) for qUartGetCmdLineQueue
    uart_task.o(i.vUartTxTask) refers to tasks.o(i.vTaskDelay) for vTaskDelay
    uart_task.o(i.vUartTxTask) refers to uart_operation.o(i.vUartSendAllBufferData) for vUartSendAllBufferData
    button_operation.o(i.vButtonInit) refers to button_device.o(i.emButtonDeviceInit) for emButtonDeviceInit
    button_operation.o(i.vButtonScan) refers to button_device.o(i.ulButtonGetEvents) for ulButtonGetEvents
    button_operation.o(i.vButtonScan) refers to queue.o(i.xQueueGenericSend) for xQueueGenericSend
    button_operation.o(i.vButtonScan) refers to button_operation.o(.data) for s_ulButtonValueCurrent
    button_operation.o(i.vButtonScan) refers to button_process_task.o(.data) for qButtonProcess
    button_operation.o(i.vButtonValueProcess) refers to oled_operation.o(i.vOledExecuteCurrentFrameCallback) for vOledExecuteCurrentFrameCallback
    button_operation.o(i.vButtonValueProcess) refers to button_operation.o(.data) for s_ulButtonValue
    cmd_interpreter_operation.o(i.CmdSendString) refers to stm32f1xx_hal_uart.o(i.HAL_UART_Transmit) for HAL_UART_Transmit
    cmd_interpreter_operation.o(i.CmdSendString) refers to main.o(.bss) for huart1
    cmd_interpreter_operation.o(i.vCmdInterpreterExecuteCallback_LedBlink_ParamNum2) refers to cmd_interpreter_operation.o(i.ulStringToUint32) for ulStringToUint32
    cmd_interpreter_operation.o(i.vCmdInterpreterExecuteCallback_LedBlink_ParamNum2) refers to queue.o(i.xQueueGenericSend) for xQueueGenericSend
    cmd_interpreter_operation.o(i.vCmdInterpreterExecuteCallback_LedBlink_ParamNum2) refers to cmd_interpreter_operation.o(i.CmdSendString) for CmdSendString
    cmd_interpreter_operation.o(i.vCmdInterpreterExecuteCallback_LedBlink_ParamNum2) refers to cmd_interpreter_operation.o(.bss) for s_stLedParamSetBuffer
    cmd_interpreter_operation.o(i.vCmdInterpreterExecuteCallback_LedBlink_ParamNum2) refers to led_task.o(.data) for qLedParamSet
    cmd_interpreter_operation.o(i.vCmdInterpreterExecuteCallback_LedBlink_ParamNum3) refers to cmd_interpreter_operation.o(i.ulStringToUint32) for ulStringToUint32
    cmd_interpreter_operation.o(i.vCmdInterpreterExecuteCallback_LedBlink_ParamNum3) refers to queue.o(i.xQueueGenericSend) for xQueueGenericSend
    cmd_interpreter_operation.o(i.vCmdInterpreterExecuteCallback_LedBlink_ParamNum3) refers to cmd_interpreter_operation.o(i.CmdSendString) for CmdSendString
    cmd_interpreter_operation.o(i.vCmdInterpreterExecuteCallback_LedBlink_ParamNum3) refers to cmd_interpreter_operation.o(.bss) for s_stLedParamSetBuffer
    cmd_interpreter_operation.o(i.vCmdInterpreterExecuteCallback_LedBlink_ParamNum3) refers to led_task.o(.data) for qLedParamSet
    cmd_interpreter_operation.o(i.vCmdInterpreterExecuteCallback_LedOff) refers to cmd_interpreter_operation.o(i.ulStringToUint32) for ulStringToUint32
    cmd_interpreter_operation.o(i.vCmdInterpreterExecuteCallback_LedOff) refers to queue.o(i.xQueueGenericSend) for xQueueGenericSend
    cmd_interpreter_operation.o(i.vCmdInterpreterExecuteCallback_LedOff) refers to cmd_interpreter_operation.o(i.CmdSendString) for CmdSendString
    cmd_interpreter_operation.o(i.vCmdInterpreterExecuteCallback_LedOff) refers to cmd_interpreter_operation.o(.bss) for s_stLedParamSetBuffer
    cmd_interpreter_operation.o(i.vCmdInterpreterExecuteCallback_LedOff) refers to led_task.o(.data) for qLedParamSet
    cmd_interpreter_operation.o(i.vCmdInterpreterExecuteCallback_LedOn) refers to cmd_interpreter_operation.o(i.ulStringToUint32) for ulStringToUint32
    cmd_interpreter_operation.o(i.vCmdInterpreterExecuteCallback_LedOn) refers to queue.o(i.xQueueGenericSend) for xQueueGenericSend
    cmd_interpreter_operation.o(i.vCmdInterpreterExecuteCallback_LedOn) refers to cmd_interpreter_operation.o(i.CmdSendString) for CmdSendString
    cmd_interpreter_operation.o(i.vCmdInterpreterExecuteCallback_LedOn) refers to cmd_interpreter_operation.o(.bss) for s_stLedParamSetBuffer
    cmd_interpreter_operation.o(i.vCmdInterpreterExecuteCallback_LedOn) refers to led_task.o(.data) for qLedParamSet
    cmd_interpreter_operation.o(i.vCmdInterpreterExecuteCallback_LedToggle) refers to cmd_interpreter_operation.o(i.ulStringToUint32) for ulStringToUint32
    cmd_interpreter_operation.o(i.vCmdInterpreterExecuteCallback_LedToggle) refers to led_device.o(i.c_pstGetLedRunningParam) for c_pstGetLedRunningParam
    cmd_interpreter_operation.o(i.vCmdInterpreterExecuteCallback_LedToggle) refers to queue.o(i.xQueueGenericSend) for xQueueGenericSend
    cmd_interpreter_operation.o(i.vCmdInterpreterExecuteCallback_LedToggle) refers to cmd_interpreter_operation.o(i.CmdSendString) for CmdSendString
    cmd_interpreter_operation.o(i.vCmdInterpreterExecuteCallback_LedToggle) refers to cmd_interpreter_operation.o(.bss) for s_stLedParamSetBuffer
    cmd_interpreter_operation.o(i.vCmdInterpreterExecuteCallback_LedToggle) refers to led_task.o(.data) for qLedParamSet
    cmd_interpreter_operation.o(i.vCmdInterpreterInit) refers to cmd_interpreter_device.o(i.emCmdInterpreterDevInit) for emCmdInterpreterDevInit
    cmd_interpreter_operation.o(i.vCmdInterpreterInit) refers to cmd_interpreter_operation.o(.constdata) for cs_astCmdInterpreterList
    cmd_interpreter_operation.o(i.vCmdInterpreterOperationExecute) refers to cmd_interpreter_device.o(i.emCmdInterpreterExecute) for emCmdInterpreterExecute
    cmd_interpreter_operation.o(.constdata) refers to cmd_interpreter_operation.o(i.vCmdInterpreterExecuteCallback_LedOn) for vCmdInterpreterExecuteCallback_LedOn
    cmd_interpreter_operation.o(.constdata) refers to cmd_interpreter_operation.o(i.vCmdInterpreterExecuteCallback_LedOff) for vCmdInterpreterExecuteCallback_LedOff
    cmd_interpreter_operation.o(.constdata) refers to cmd_interpreter_operation.o(i.vCmdInterpreterExecuteCallback_LedToggle) for vCmdInterpreterExecuteCallback_LedToggle
    cmd_interpreter_operation.o(.constdata) refers to cmd_interpreter_operation.o(i.vCmdInterpreterExecuteCallback_LedBlink_ParamNum2) for vCmdInterpreterExecuteCallback_LedBlink_ParamNum2
    cmd_interpreter_operation.o(.constdata) refers to cmd_interpreter_operation.o(i.vCmdInterpreterExecuteCallback_LedBlink_ParamNum3) for vCmdInterpreterExecuteCallback_LedBlink_ParamNum3
    dht11_operation.o(i.c_pstGetDht11OperationRunningParam) refers to dht11_operation.o(.bss) for s_stRunningParam
    dht11_operation.o(i.sGetAverageWithoutMaxAndMin) refers to memcpya.o(.text) for __aeabi_memcpy
    dht11_operation.o(i.vDht11Init) refers to dht11_device.o(i.emDht11DevInit) for emDht11DevInit
    dht11_operation.o(i.vDht11RefreshData) refers to dht11_device.o(i.ucDht11ReadData) for ucDht11ReadData
    dht11_operation.o(i.vDht11RefreshData) refers to dht11_device.o(i.c_pstDht11GetRunningParam) for c_pstDht11GetRunningParam
    dht11_operation.o(i.vDht11RefreshData) refers to dht11_operation.o(i.sGetAverageWithoutMaxAndMin) for sGetAverageWithoutMaxAndMin
    dht11_operation.o(i.vDht11RefreshData) refers to ui_frame_dht11.o(i.vDht11FrameUpdateTemperatureValue) for vDht11FrameUpdateTemperatureValue
    dht11_operation.o(i.vDht11RefreshData) refers to ui_frame_dht11.o(i.vDht11FrameUpdateHumidityValue) for vDht11FrameUpdateHumidityValue
    dht11_operation.o(i.vDht11RefreshData) refers to dht11_operation.o(.bss) for s_stRunningParam
    dht11_operation.o(i.vDht11RefreshData) refers to dht11_operation.o(.data) for i
    led_operation.o(i.vLedInit) refers to led_device.o(i.vLedSetRunningParam) for vLedSetRunningParam
    led_operation.o(i.vLedInit) refers to led_device.o(i.emLedDeviceInit) for emLedDeviceInit
    led_operation.o(i.vLedOperationExecute) refers to led_device.o(i.vLedExecute) for vLedExecute
    led_operation.o(i.vLedOperationParamUpdate) refers to led_device.o(i.vLedSetRunningParam) for vLedSetRunningParam
    oled_operation.o(i.vOledExecuteCurrentFrameCallback) refers to ui_core.o(i.vUiFrameCallbackExecute) for vUiFrameCallbackExecute
    oled_operation.o(i.vOledExecuteCurrentFrameCallback) refers to oled_operation.o(.data) for s_stUiObject
    oled_operation.o(i.vOledInit) refers to oled_device.o(i.vOledDeviceInit) for vOledDeviceInit
    oled_operation.o(i.vOledRefreshCurrentFrame) refers to ui_core.o(i.vUpdateUiObjectToFrameBuffer) for vUpdateUiObjectToFrameBuffer
    oled_operation.o(i.vOledRefreshCurrentFrame) refers to ui_core.o(i.c_pucUiGetFrameBuffer) for c_pucUiGetFrameBuffer
    oled_operation.o(i.vOledRefreshCurrentFrame) refers to oled_device.o(i.vOledRefreshFromBuffer) for vOledRefreshFromBuffer
    oled_operation.o(i.vOledRefreshCurrentFrame) refers to oled_operation.o(.data) for s_stUiObject
    oled_operation.o(i.vUiClearFrame) refers to ui_core.o(i.vClearFrameBuffer) for vClearFrameBuffer
    oled_operation.o(i.vUiInit) refers to ui_frame_main.o(i.pstGetMainFrame) for pstGetMainFrame
    oled_operation.o(i.vUiInit) refers to ui_frame_main.o(i.vMainFrameInit) for vMainFrameInit
    oled_operation.o(i.vUiInit) refers to ui_frame_led_ctrl.o(i.pstGetLedCtrlFrame) for pstGetLedCtrlFrame
    oled_operation.o(i.vUiInit) refers to ui_frame_led_ctrl.o(i.vLedCtrlFrameInit) for vLedCtrlFrameInit
    oled_operation.o(i.vUiInit) refers to ui_frame_dht11.o(i.pstGetDht11Frame) for pstGetDht11Frame
    oled_operation.o(i.vUiInit) refers to ui_frame_dht11.o(i.vDht11FrameInit) for vDht11FrameInit
    oled_operation.o(i.vUiInit) refers to oled_operation.o(.bss) for s_apstFrame
    oled_operation.o(i.vUiInit) refers to oled_operation.o(.data) for s_stUiObject
    oled_operation.o(i.vUiSetCurrentFrame) refers to oled_operation.o(.data) for s_stUiObject
    uart_operation.o(i.vUart1InterruptCallback) refers to ring_buffer_device.o(i.emRingBufferWriteSingleElement) for emRingBufferWriteSingleElement
    uart_operation.o(i.vUart1InterruptCallback) refers to uart_operation.o(.data) for s_ucRTxData
    uart_operation.o(i.vUartGetCmdLine) refers to ring_buffer_device.o(i.c_pstRingBufferGetRunningParam) for c_pstRingBufferGetRunningParam
    uart_operation.o(i.vUartGetCmdLine) refers to ring_buffer_device.o(i.c_pstRingBufferGetStaticParam) for c_pstRingBufferGetStaticParam
    uart_operation.o(i.vUartGetCmdLine) refers to memseta.o(.text) for __aeabi_memset
    uart_operation.o(i.vUartGetCmdLine) refers to ring_buffer_device.o(i.emRingBufferReadSingleElement) for emRingBufferReadSingleElement
    uart_operation.o(i.vUartGetCmdLine) refers to queue.o(i.xQueueGenericSend) for xQueueGenericSend
    uart_operation.o(i.vUartGetCmdLine) refers to uart_operation.o(.bss) for s_ucCmdLineBuffer
    uart_operation.o(i.vUartGetCmdLine) refers to uart_task.o(.data) for qUartGetCmdLineQueue
    uart_operation.o(i.vUartInit) refers to ring_buffer_device.o(i.emRingBufferDevInit) for emRingBufferDevInit
    uart_operation.o(i.vUartInit) refers to uart_operation.o(.bss) for s_aucTxByteBuffer
    uart_operation.o(i.vUartInit) refers to main.o(.bss) for huart1
    uart_operation.o(i.vUartSendAllBufferData) refers to ring_buffer_device.o(i.c_pstRingBufferGetRunningParam) for c_pstRingBufferGetRunningParam
    uart_operation.o(i.vUartSendAllBufferData) refers to ring_buffer_device.o(i.emRingBufferReadSingleElement) for emRingBufferReadSingleElement
    uart_operation.o(i.vUartSendAllBufferData) refers to stm32f1xx_hal_uart.o(i.HAL_UART_Transmit) for HAL_UART_Transmit
    uart_operation.o(i.vUartSendAllBufferData) refers to main.o(.bss) for huart1
    button_device.o(i.emButtonDeviceInit) refers to button_device.o(i.s_vButtonStaticParamCopy) for s_vButtonStaticParamCopy
    button_device.o(i.emButtonDeviceInit) refers to button_device.o(.bss) for s_astButtonDevice
    button_device.o(i.emButtonGetEvent) refers to button_device.o(i.vButtonRefreshStatus) for vButtonRefreshStatus
    button_device.o(i.emButtonGetEvent) refers to button_device.o(.bss) for s_astButtonDevice
    button_device.o(i.emButtonGetStatus) refers to button_device.o(.bss) for s_astButtonDevice
    button_device.o(i.s_ucReadButtonRawLevel) refers to stm32f1xx_hal_gpio.o(i.HAL_GPIO_ReadPin) for HAL_GPIO_ReadPin
    button_device.o(i.s_ucReadButtonRawLevel) refers to button_device.o(.bss) for s_astButtonDevice
    button_device.o(i.s_vButtonStaticParamCopy) refers to button_device.o(.bss) for s_astButtonDevice
    button_device.o(i.ulButtonGetEvents) refers to button_device.o(i.emButtonGetEvent) for emButtonGetEvent
    button_device.o(i.vButtonRefreshStatus) refers to button_device.o(i.s_ucReadButtonRawLevel) for s_ucReadButtonRawLevel
    button_device.o(i.vButtonRefreshStatus) refers to button_device.o(.bss) for s_astButtonDevice
    button_device.o(i.vButtonSetCurrentStatus) refers to button_device.o(.bss) for s_astButtonDevice
    cmd_interpreter_device.o(i.c_pstCmdInterpreterGetRunningParam) refers to cmd_interpreter_device.o(.bss) for astCmdInterpreterDevice
    cmd_interpreter_device.o(i.c_pstCmdInterpreterGetStaticParam) refers to cmd_interpreter_device.o(.bss) for astCmdInterpreterDevice
    cmd_interpreter_device.o(i.emCmdInterpreterDevInit) refers to cmd_interpreter_device.o(i.s_vCmdInterpreterStaticParamCopy) for s_vCmdInterpreterStaticParamCopy
    cmd_interpreter_device.o(i.emCmdInterpreterExecute) refers to memseta.o(.text) for __aeabi_memclr4
    cmd_interpreter_device.o(i.emCmdInterpreterExecute) refers to strtok.o(.text) for strtok
    cmd_interpreter_device.o(i.emCmdInterpreterExecute) refers to strcmp.o(.text) for strcmp
    cmd_interpreter_device.o(i.emCmdInterpreterExecute) refers to cmd_interpreter_device.o(.bss) for astCmdInterpreterDevice
    cmd_interpreter_device.o(i.s_vCmdInterpreterStaticParamCopy) refers to cmd_interpreter_device.o(.bss) for astCmdInterpreterDevice
    dht11_device.o(i.c_pstDht11GetRunningParam) refers to dht11_device.o(.bss) for s_stDht11Device
    dht11_device.o(i.c_pstDht11GetStaticParam) refers to dht11_device.o(.bss) for s_stDht11Device
    dht11_device.o(i.emDht11DevInit) refers to dht11_device.o(i.s_vDht11InitParamCopy) for s_vDht11InitParamCopy
    dht11_device.o(i.s_vDht11InitParamCopy) refers to dht11_device.o(.bss) for s_stDht11Device
    dht11_device.o(i.ucDht11ReadBit) refers to dht11_device.o(i.vDht11SetPinDirInput) for vDht11SetPinDirInput
    dht11_device.o(i.ucDht11ReadBit) refers to stm32f1xx_hal_gpio.o(i.HAL_GPIO_ReadPin) for HAL_GPIO_ReadPin
    dht11_device.o(i.ucDht11ReadBit) refers to dht11_device.o(i.s_vDelayUs) for s_vDelayUs
    dht11_device.o(i.ucDht11ReadBit) refers to dht11_device.o(.bss) for s_stDht11Device
    dht11_device.o(i.ucDht11ReadData) refers to dht11_device.o(i.vDht11Start) for vDht11Start
    dht11_device.o(i.ucDht11ReadData) refers to dht11_device.o(i.ucDht11WaitForAck) for ucDht11WaitForAck
    dht11_device.o(i.ucDht11ReadData) refers to dht11_device.o(i.ucDht11ReadBit) for ucDht11ReadBit
    dht11_device.o(i.ucDht11ReadData) refers to dht11_device.o(.bss) for s_stDht11Device
    dht11_device.o(i.ucDht11WaitForAck) refers to dht11_device.o(i.vDht11SetPinDirInput) for vDht11SetPinDirInput
    dht11_device.o(i.ucDht11WaitForAck) refers to stm32f1xx_hal_gpio.o(i.HAL_GPIO_ReadPin) for HAL_GPIO_ReadPin
    dht11_device.o(i.ucDht11WaitForAck) refers to dht11_device.o(i.s_vDelayUs) for s_vDelayUs
    dht11_device.o(i.ucDht11WaitForAck) refers to dht11_device.o(.bss) for s_stDht11Device
    dht11_device.o(i.vDht11SetPinDirInput) refers to stm32f1xx_hal_gpio.o(i.HAL_GPIO_Init) for HAL_GPIO_Init
    dht11_device.o(i.vDht11SetPinDirInput) refers to dht11_device.o(.bss) for s_stDht11Device
    dht11_device.o(i.vDht11SetPinDirOutput) refers to stm32f1xx_hal_gpio.o(i.HAL_GPIO_Init) for HAL_GPIO_Init
    dht11_device.o(i.vDht11SetPinDirOutput) refers to dht11_device.o(.bss) for s_stDht11Device
    dht11_device.o(i.vDht11Start) refers to dht11_device.o(i.vDht11SetPinDirOutput) for vDht11SetPinDirOutput
    dht11_device.o(i.vDht11Start) refers to dht11_device.o(i.vDht11WritePinLow) for vDht11WritePinLow
    dht11_device.o(i.vDht11Start) refers to tasks.o(i.vTaskDelay) for vTaskDelay
    dht11_device.o(i.vDht11Start) refers to dht11_device.o(i.vDht11WritePinHigh) for vDht11WritePinHigh
    dht11_device.o(i.vDht11Start) refers to dht11_device.o(i.s_vDelayUs) for s_vDelayUs
    dht11_device.o(i.vDht11WritePinHigh) refers to stm32f1xx_hal_gpio.o(i.HAL_GPIO_WritePin) for HAL_GPIO_WritePin
    dht11_device.o(i.vDht11WritePinHigh) refers to dht11_device.o(.bss) for s_stDht11Device
    dht11_device.o(i.vDht11WritePinLow) refers to stm32f1xx_hal_gpio.o(i.HAL_GPIO_WritePin) for HAL_GPIO_WritePin
    dht11_device.o(i.vDht11WritePinLow) refers to dht11_device.o(.bss) for s_stDht11Device
    led_device.o(i.c_pstGetLedRunningParam) refers to led_device.o(.bss) for s_astLedDevice
    led_device.o(i.emLedDeviceInit) refers to led_device.o(i.s_vLedStaticParamCopy) for s_vLedStaticParamCopy
    led_device.o(i.s_vLedStaticParamCopy) refers to led_device.o(.bss) for s_astLedDevice
    led_device.o(i.vLedExecute) refers to led_device.o(i.vLedRefreshOutputLevel) for vLedRefreshOutputLevel
    led_device.o(i.vLedExecute) refers to led_device.o(.bss) for s_astLedDevice
    led_device.o(i.vLedRefreshOutputLevel) refers to stm32f1xx_hal_gpio.o(i.HAL_GPIO_WritePin) for HAL_GPIO_WritePin
    led_device.o(i.vLedRefreshOutputLevel) refers to led_device.o(.bss) for s_astLedDevice
    led_device.o(i.vLedSetRunningParam) refers to led_device.o(.bss) for s_astLedDevice
    led_device.o(i.vLedToggleCurrentStatus) refers to led_device.o(i.vLedRefreshOutputLevel) for vLedRefreshOutputLevel
    led_device.o(i.vLedToggleCurrentStatus) refers to led_device.o(.bss) for s_astLedDevice
    oled_device.o(i.c_pstOledGetRunningParam) refers to oled_device.o(.bss) for s_astOledDeviceParam
    oled_device.o(i.s_vOledIicSendByte) refers to stm32f1xx_hal_gpio.o(i.HAL_GPIO_WritePin) for HAL_GPIO_WritePin
    oled_device.o(i.s_vOledIicSendByte) refers to oled_device.o(.bss) for s_astOledDeviceParam
    oled_device.o(i.s_vOledIicStart) refers to stm32f1xx_hal_gpio.o(i.HAL_GPIO_WritePin) for HAL_GPIO_WritePin
    oled_device.o(i.s_vOledIicStart) refers to oled_device.o(.bss) for s_astOledDeviceParam
    oled_device.o(i.s_vOledIicStop) refers to stm32f1xx_hal_gpio.o(i.HAL_GPIO_WritePin) for HAL_GPIO_WritePin
    oled_device.o(i.s_vOledIicStop) refers to oled_device.o(.bss) for s_astOledDeviceParam
    oled_device.o(i.s_vOledIicWaitAck) refers to stm32f1xx_hal_gpio.o(i.HAL_GPIO_WritePin) for HAL_GPIO_WritePin
    oled_device.o(i.s_vOledIicWaitAck) refers to oled_device.o(.bss) for s_astOledDeviceParam
    oled_device.o(i.s_vOledStaticParamInit) refers to oled_device.o(.bss) for s_astOledDeviceParam
    oled_device.o(i.s_vOledWriteOneByteCmd) refers to oled_device.o(i.s_vOledIicStart) for s_vOledIicStart
    oled_device.o(i.s_vOledWriteOneByteCmd) refers to oled_device.o(i.s_vOledIicSendByte) for s_vOledIicSendByte
    oled_device.o(i.s_vOledWriteOneByteCmd) refers to oled_device.o(i.s_vOledIicWaitAck) for s_vOledIicWaitAck
    oled_device.o(i.s_vOledWriteOneByteCmd) refers to oled_device.o(i.s_vOledIicStop) for s_vOledIicStop
    oled_device.o(i.s_vOledWriteOneByteData) refers to oled_device.o(i.s_vOledIicStart) for s_vOledIicStart
    oled_device.o(i.s_vOledWriteOneByteData) refers to oled_device.o(i.s_vOledIicSendByte) for s_vOledIicSendByte
    oled_device.o(i.s_vOledWriteOneByteData) refers to oled_device.o(i.s_vOledIicWaitAck) for s_vOledIicWaitAck
    oled_device.o(i.s_vOledWriteOneByteData) refers to oled_device.o(i.s_vOledIicStop) for s_vOledIicStop
    oled_device.o(i.vOledCmdInit) refers to oled_device.o(i.s_vOledWriteOneByteCmd) for s_vOledWriteOneByteCmd
    oled_device.o(i.vOledDeviceInit) refers to oled_device.o(i.s_vOledStaticParamInit) for s_vOledStaticParamInit
    oled_device.o(i.vOledDeviceInit) refers to oled_device.o(i.vOledCmdInit) for vOledCmdInit
    oled_device.o(i.vOledDisplayOff) refers to oled_device.o(i.s_vOledWriteOneByteCmd) for s_vOledWriteOneByteCmd
    oled_device.o(i.vOledDisplayOn) refers to oled_device.o(i.s_vOledWriteOneByteCmd) for s_vOledWriteOneByteCmd
    oled_device.o(i.vOledRefreshFromBuffer) refers to oled_device.o(i.s_vOledWriteOneByteCmd) for s_vOledWriteOneByteCmd
    oled_device.o(i.vOledRefreshFromBuffer) refers to oled_device.o(i.s_vOledWriteOneByteData) for s_vOledWriteOneByteData
    ring_buffer_device.o(i.c_pstRingBufferGetRunningParam) refers to ring_buffer_device.o(.bss) for astRingBufferDev
    ring_buffer_device.o(i.c_pstRingBufferGetStaticParam) refers to ring_buffer_device.o(.bss) for astRingBufferDev
    ring_buffer_device.o(i.emRingBufferDevInit) refers to ring_buffer_device.o(i.s_vRingBufferStaticParamCopy) for s_vRingBufferStaticParamCopy
    ring_buffer_device.o(i.emRingBufferDevInit) refers to ring_buffer_device.o(i.s_vRingBufferRunningParamInit) for s_vRingBufferRunningParamInit
    ring_buffer_device.o(i.emRingBufferReadSingleElement) refers to ring_buffer_device.o(.bss) for astRingBufferDev
    ring_buffer_device.o(i.emRingBufferWriteSingleElement) refers to ring_buffer_device.o(.bss) for astRingBufferDev
    ring_buffer_device.o(i.s_vRingBufferRunningParamInit) refers to ring_buffer_device.o(.bss) for astRingBufferDev
    ring_buffer_device.o(i.s_vRingBufferStaticParamCopy) refers to ring_buffer_device.o(.bss) for astRingBufferDev
    ui_frame_main.o(i.pstGetMainFrame) refers to ui_frame_main.o(.bss) for s_stMainFrame
    ui_frame_main.o(i.s_vMainFrameButtonEnterExecute) refers to queue.o(i.xQueueGenericSend) for xQueueGenericSend
    ui_frame_main.o(i.s_vMainFrameButtonEnterExecute) refers to ui_frame_main.o(.data) for s_stMainFrameMenuBox
    ui_frame_main.o(i.s_vMainFrameButtonEnterExecute) refers to oled_task.o(.data) for qUiParamSet
    ui_frame_main.o(i.s_vMainFrameCallback) refers to ui_core.o(i.vUiMenuBoxExecuteSelectDec) for vUiMenuBoxExecuteSelectDec
    ui_frame_main.o(i.s_vMainFrameCallback) refers to ui_core.o(i.vUiMenuBoxExecuteSelectInc) for vUiMenuBoxExecuteSelectInc
    ui_frame_main.o(i.s_vMainFrameCallback) refers to ui_frame_main.o(i.s_vMainFrameButtonEnterExecute) for s_vMainFrameButtonEnterExecute
    ui_frame_main.o(i.s_vMainFrameCallback) refers to ui_frame_main.o(.data) for s_stMainFrameMenuBox
    ui_frame_main.o(i.vMainFrameInit) refers to ui_core.o(i.vUiAddOneWidgetToFrameAsTailWidgetNode) for vUiAddOneWidgetToFrameAsTailWidgetNode
    ui_frame_main.o(i.vMainFrameInit) refers to ui_frame_main.o(.data) for s_stMainFrameWidgetNode_MenuBox
    ui_frame_main.o(i.vMainFrameInit) refers to ui_frame_main.o(.bss) for s_stMainFrame
    ui_frame_main.o(i.vMainFrameInit) refers to ui_frame_main.o(i.s_vMainFrameCallback) for s_vMainFrameCallback
    ui_frame_led_ctrl.o(i.pstGetLedCtrlFrame) refers to ui_frame_led_ctrl.o(.bss) for s_stLedCtrlFrame
    ui_frame_led_ctrl.o(i.s_vLedCtrlFrameButtonCancelExecute) refers to queue.o(i.xQueueGenericSend) for xQueueGenericSend
    ui_frame_led_ctrl.o(i.s_vLedCtrlFrameButtonCancelExecute) refers to ui_frame_led_ctrl.o(.data) for s_stLedCtrlFrameTextBox_LedOnString
    ui_frame_led_ctrl.o(i.s_vLedCtrlFrameButtonCancelExecute) refers to oled_task.o(.data) for qUiParamSet
    ui_frame_led_ctrl.o(i.s_vLedCtrlFrameButtonDownExecute) refers to ui_frame_led_ctrl.o(.data) for s_aucTextBoxData_LedDevValue
    ui_frame_led_ctrl.o(i.s_vLedCtrlFrameButtonEnterExecute) refers to ui_frame_led_ctrl.o(i.vLedCtrlRequestLedOff) for vLedCtrlRequestLedOff
    ui_frame_led_ctrl.o(i.s_vLedCtrlFrameButtonEnterExecute) refers to ui_frame_led_ctrl.o(i.vLedCtrlRequestLedOn) for vLedCtrlRequestLedOn
    ui_frame_led_ctrl.o(i.s_vLedCtrlFrameButtonEnterExecute) refers to ui_frame_led_ctrl.o(.data) for s_stLedCtrlFrameTextBox_LedOnString
    ui_frame_led_ctrl.o(i.s_vLedCtrlFrameButtonUpExecute) refers to ui_frame_led_ctrl.o(.data) for s_aucTextBoxData_LedDevValue
    ui_frame_led_ctrl.o(i.s_vLedCtrlFrameCallback) refers to ui_frame_led_ctrl.o(i.s_vLedCtrlFrameButtonUpExecute) for s_vLedCtrlFrameButtonUpExecute
    ui_frame_led_ctrl.o(i.s_vLedCtrlFrameCallback) refers to ui_frame_led_ctrl.o(i.s_vLedCtrlFrameButtonDownExecute) for s_vLedCtrlFrameButtonDownExecute
    ui_frame_led_ctrl.o(i.s_vLedCtrlFrameCallback) refers to ui_frame_led_ctrl.o(i.s_vLedCtrlFrameButtonEnterExecute) for s_vLedCtrlFrameButtonEnterExecute
    ui_frame_led_ctrl.o(i.s_vLedCtrlFrameCallback) refers to ui_frame_led_ctrl.o(i.s_vLedCtrlFrameButtonCancelExecute) for s_vLedCtrlFrameButtonCancelExecute
    ui_frame_led_ctrl.o(i.s_vLedCtrlFrameCallback) refers to ui_frame_led_ctrl.o(.data) for s_emStatus
    ui_frame_led_ctrl.o(i.vLedCtrlFrameInit) refers to ui_core.o(i.vUiAddOneWidgetToFrameAsTailWidgetNode) for vUiAddOneWidgetToFrameAsTailWidgetNode
    ui_frame_led_ctrl.o(i.vLedCtrlFrameInit) refers to ui_frame_led_ctrl.o(.data) for s_stLedCtrlFrameWidgetNode_LedDevString
    ui_frame_led_ctrl.o(i.vLedCtrlFrameInit) refers to ui_frame_led_ctrl.o(.bss) for s_stLedCtrlFrame
    ui_frame_led_ctrl.o(i.vLedCtrlFrameInit) refers to ui_frame_led_ctrl.o(i.s_vLedCtrlFrameCallback) for s_vLedCtrlFrameCallback
    ui_frame_led_ctrl.o(i.vLedCtrlRequestLedOff) refers to queue.o(i.xQueueGenericSend) for xQueueGenericSend
    ui_frame_led_ctrl.o(i.vLedCtrlRequestLedOff) refers to ui_frame_led_ctrl.o(.bss) for s_stLedParamSetBuffer
    ui_frame_led_ctrl.o(i.vLedCtrlRequestLedOff) refers to led_task.o(.data) for qLedParamSet
    ui_frame_led_ctrl.o(i.vLedCtrlRequestLedOn) refers to queue.o(i.xQueueGenericSend) for xQueueGenericSend
    ui_frame_led_ctrl.o(i.vLedCtrlRequestLedOn) refers to ui_frame_led_ctrl.o(.bss) for s_stLedParamSetBuffer
    ui_frame_led_ctrl.o(i.vLedCtrlRequestLedOn) refers to led_task.o(.data) for qLedParamSet
    ui_frame_dht11.o(i.pstGetDht11Frame) refers to ui_frame_dht11.o(.bss) for s_stDht11Frame
    ui_frame_dht11.o(i.s_vDht11FrameButtonEnterExecute) refers to queue.o(i.xQueueGenericSend) for xQueueGenericSend
    ui_frame_dht11.o(i.s_vDht11FrameButtonEnterExecute) refers to oled_task.o(.data) for qUiParamSet
    ui_frame_dht11.o(i.s_vDht11FrameCallback) refers to ui_frame_dht11.o(i.s_vDht11FrameButtonEnterExecute) for s_vDht11FrameButtonEnterExecute
    ui_frame_dht11.o(i.vDht11FrameInit) refers to ui_core.o(i.vUiAddOneWidgetToFrameAsTailWidgetNode) for vUiAddOneWidgetToFrameAsTailWidgetNode
    ui_frame_dht11.o(i.vDht11FrameInit) refers to ui_frame_dht11.o(.data) for s_stDht11FrameWidgetNode_TemperatureString
    ui_frame_dht11.o(i.vDht11FrameInit) refers to ui_frame_dht11.o(.bss) for s_stDht11Frame
    ui_frame_dht11.o(i.vDht11FrameInit) refers to ui_frame_dht11.o(i.s_vDht11FrameCallback) for s_vDht11FrameCallback
    ui_frame_dht11.o(i.vDht11FrameUpdateHumidityValue) refers to ui_frame_dht11.o(.data) for s_aucTextBoxData_HumidityValue
    ui_frame_dht11.o(i.vDht11FrameUpdateTemperatureValue) refers to ui_frame_dht11.o(.data) for s_aucTextBoxData_TemperatureValue
    ui_core.o(i.c_pucUiGetFrameBuffer) refers to ui_core.o(.bss) for s_aucUiOneFrameBuffer
    ui_core.o(i.s_vUiClearOnePointToBuffer) refers to ui_core.o(.bss) for s_aucUiOneFrameBuffer
    ui_core.o(i.s_vUiDrawOnePointToBuffer) refers to ui_core.o(.bss) for s_aucUiOneFrameBuffer
    ui_core.o(i.s_vUiWriteOneCharToBuffer) refers to ui_core.o(i.s_vUiDrawOnePointToBuffer) for s_vUiDrawOnePointToBuffer
    ui_core.o(i.s_vUiWriteOneCharToBuffer) refers to ui_core.o(i.s_vUiClearOnePointToBuffer) for s_vUiClearOnePointToBuffer
    ui_core.o(i.s_vUiWriteOneCharToBuffer) refers to ui_font.o(.constdata) for c_a2ucUiFont_Ascii_1206
    ui_core.o(i.s_vUiWriteStringToBuffer) refers to ui_core.o(i.s_vUiWriteOneCharToBuffer) for s_vUiWriteOneCharToBuffer
    ui_core.o(i.s_vUpdateFrameToFrameBuffer) refers to ui_core.o(i.s_vUpdateWidgetToFrameBuffer) for s_vUpdateWidgetToFrameBuffer
    ui_core.o(i.s_vUpdateMenuBoxToFrameBuffer) refers to ui_core.o(i.s_vUiWriteStringToBuffer) for s_vUiWriteStringToBuffer
    ui_core.o(i.s_vUpdateTextBoxToFrameBuffer) refers to ui_core.o(i.s_vUiWriteStringToBuffer) for s_vUiWriteStringToBuffer
    ui_core.o(i.s_vUpdateWidgetToFrameBuffer) refers to ui_core.o(i.s_vUpdateTextBoxToFrameBuffer) for s_vUpdateTextBoxToFrameBuffer
    ui_core.o(i.s_vUpdateWidgetToFrameBuffer) refers to ui_core.o(i.s_vUpdateMenuBoxToFrameBuffer) for s_vUpdateMenuBoxToFrameBuffer
    ui_core.o(i.vClearFrameBuffer) refers to memseta.o(.text) for __aeabi_memset
    ui_core.o(i.vClearFrameBuffer) refers to ui_core.o(.bss) for s_aucUiOneFrameBuffer
    ui_core.o(i.vUiShowIntWithFrontZero) refers to ui_core.o(i.s_ulUiPow) for s_ulUiPow
    ui_core.o(i.vUiShowIntWithFrontZero) refers to ui_core.o(i.s_vUiWriteOneCharToBuffer) for s_vUiWriteOneCharToBuffer
    ui_core.o(i.vUiShowIntWithoutFrontZero) refers to ui_core.o(i.s_ulUiPow) for s_ulUiPow
    ui_core.o(i.vUiShowIntWithoutFrontZero) refers to ui_core.o(i.s_vUiWriteOneCharToBuffer) for s_vUiWriteOneCharToBuffer
    ui_core.o(i.vUpdateUiObjectToFrameBuffer) refers to ui_core.o(i.s_vUpdateFrameToFrameBuffer) for s_vUpdateFrameToFrameBuffer
    startup_stm32f103xb.o(RESET) refers to startup_stm32f103xb.o(STACK) for __initial_sp
    startup_stm32f103xb.o(RESET) refers to startup_stm32f103xb.o(.text) for Reset_Handler
    startup_stm32f103xb.o(RESET) refers to stm32f1xx_it.o(i.NMI_Handler) for NMI_Handler
    startup_stm32f103xb.o(RESET) refers to stm32f1xx_it.o(i.HardFault_Handler) for HardFault_Handler
    startup_stm32f103xb.o(RESET) refers to stm32f1xx_it.o(i.MemManage_Handler) for MemManage_Handler
    startup_stm32f103xb.o(RESET) refers to stm32f1xx_it.o(i.BusFault_Handler) for BusFault_Handler
    startup_stm32f103xb.o(RESET) refers to stm32f1xx_it.o(i.UsageFault_Handler) for UsageFault_Handler
    startup_stm32f103xb.o(RESET) refers to port.o(.emb_text) for SVC_Handler
    startup_stm32f103xb.o(RESET) refers to stm32f1xx_it.o(i.DebugMon_Handler) for DebugMon_Handler
    startup_stm32f103xb.o(RESET) refers to stm32f1xx_it.o(i.SysTick_Handler) for SysTick_Handler
    startup_stm32f103xb.o(RESET) refers to stm32f1xx_it.o(i.USART1_IRQHandler) for USART1_IRQHandler
    startup_stm32f103xb.o(.text) refers to system_stm32f1xx.o(i.SystemInit) for SystemInit
    startup_stm32f103xb.o(.text) refers to entry.o(.ARM.Collect$$$$00000000) for __main
    main.o(i.MX_GPIO_Init) refers to stm32f1xx_hal_gpio.o(i.HAL_GPIO_WritePin) for HAL_GPIO_WritePin
    main.o(i.MX_GPIO_Init) refers to stm32f1xx_hal_gpio.o(i.HAL_GPIO_Init) for HAL_GPIO_Init
    main.o(i.MX_USART1_UART_Init) refers to stm32f1xx_hal_uart.o(i.HAL_UART_Init) for HAL_UART_Init
    main.o(i.MX_USART1_UART_Init) refers to main.o(i.Error_Handler) for Error_Handler
    main.o(i.MX_USART1_UART_Init) refers to main.o(.bss) for huart1
    main.o(i.SystemClock_Config) refers to memseta.o(.text) for __aeabi_memclr4
    main.o(i.SystemClock_Config) refers to stm32f1xx_hal_rcc.o(i.HAL_RCC_OscConfig) for HAL_RCC_OscConfig
    main.o(i.SystemClock_Config) refers to main.o(i.Error_Handler) for Error_Handler
    main.o(i.SystemClock_Config) refers to stm32f1xx_hal_rcc.o(i.HAL_RCC_ClockConfig) for HAL_RCC_ClockConfig
    main.o(i.main) refers to stm32f1xx_hal.o(i.HAL_Init) for HAL_Init
    main.o(i.main) refers to main.o(i.SystemClock_Config) for SystemClock_Config
    main.o(i.main) refers to main.o(i.MX_GPIO_Init) for MX_GPIO_Init
    main.o(i.main) refers to main.o(i.MX_USART1_UART_Init) for MX_USART1_UART_Init
    main.o(i.main) refers to cmsis_os2.o(i.osKernelInitialize) for osKernelInitialize
    main.o(i.main) refers to cmsis_os2.o(i.osThreadNew) for osThreadNew
    main.o(i.main) refers to cmsis_os2.o(i.osKernelStart) for osKernelStart
    main.o(i.main) refers to main.o(.constdata) for LoopTask_attributes
    main.o(i.main) refers to loop_task.o(i.vLoopTask) for vLoopTask
    main.o(i.main) refers to main.o(.data) for LoopTaskHandle
    main.o(i.main) refers to led_task.o(i.vLedTask) for vLedTask
    main.o(i.main) refers to oled_task.o(i.vOledTask) for vOledTask
    main.o(i.main) refers to button_process_task.o(i.vButtonProcessTask) for vButtonProcessTask
    main.o(i.main) refers to dht11_task.o(i.vDht11Task) for vDht11Task
    main.o(i.main) refers to uart_task.o(i.vUartTxTask) for vUartTxTask
    main.o(i.main) refers to uart_task.o(i.vUartRxTask) for vUartRxTask
    main.o(i.main) refers to uart_task.o(i.vUartCmdInterpreterTask) for vUartCmdInterpreterTask
    main.o(i.vButtonProcessTask) refers to cmsis_os2.o(i.osDelay) for osDelay
    main.o(i.vDht11Task) refers to cmsis_os2.o(i.osDelay) for osDelay
    main.o(i.vLedTask) refers to cmsis_os2.o(i.osDelay) for osDelay
    main.o(i.vLoopTask) refers to cmsis_os2.o(i.osDelay) for osDelay
    main.o(i.vOledTask) refers to cmsis_os2.o(i.osDelay) for osDelay
    main.o(i.vUartCmdInterpreterTask) refers to cmsis_os2.o(i.osDelay) for osDelay
    main.o(i.vUartRxTask) refers to cmsis_os2.o(i.osDelay) for osDelay
    main.o(i.vUartTxTask) refers to cmsis_os2.o(i.osDelay) for osDelay
    main.o(.constdata) refers to main.o(.conststring) for .conststring
    stm32f1xx_it.o(i.SysTick_Handler) refers to stm32f1xx_hal.o(i.HAL_IncTick) for HAL_IncTick
    stm32f1xx_it.o(i.SysTick_Handler) refers to tasks.o(i.xTaskGetSchedulerState) for xTaskGetSchedulerState
    stm32f1xx_it.o(i.SysTick_Handler) refers to port.o(i.xPortSysTickHandler) for xPortSysTickHandler
    stm32f1xx_it.o(i.USART1_IRQHandler) refers to uart_operation.o(i.vUart1InterruptCallback) for vUart1InterruptCallback
    stm32f1xx_hal_msp.o(i.HAL_MspInit) refers to stm32f1xx_hal_cortex.o(i.HAL_NVIC_SetPriority) for HAL_NVIC_SetPriority
    stm32f1xx_hal_msp.o(i.HAL_UART_MspDeInit) refers to stm32f1xx_hal_gpio.o(i.HAL_GPIO_DeInit) for HAL_GPIO_DeInit
    stm32f1xx_hal_msp.o(i.HAL_UART_MspDeInit) refers to stm32f1xx_hal_cortex.o(i.HAL_NVIC_DisableIRQ) for HAL_NVIC_DisableIRQ
    stm32f1xx_hal_msp.o(i.HAL_UART_MspInit) refers to stm32f1xx_hal_gpio.o(i.HAL_GPIO_Init) for HAL_GPIO_Init
    stm32f1xx_hal_msp.o(i.HAL_UART_MspInit) refers to stm32f1xx_hal_cortex.o(i.HAL_NVIC_SetPriority) for HAL_NVIC_SetPriority
    stm32f1xx_hal_msp.o(i.HAL_UART_MspInit) refers to stm32f1xx_hal_cortex.o(i.HAL_NVIC_EnableIRQ) for HAL_NVIC_EnableIRQ
    stm32f1xx_hal.o(i.HAL_DeInit) refers to stm32f1xx_hal.o(i.HAL_MspDeInit) for HAL_MspDeInit
    stm32f1xx_hal.o(i.HAL_Delay) refers to stm32f1xx_hal.o(i.HAL_GetTick) for HAL_GetTick
    stm32f1xx_hal.o(i.HAL_Delay) refers to stm32f1xx_hal.o(.data) for uwTickFreq
    stm32f1xx_hal.o(i.HAL_GetTick) refers to stm32f1xx_hal.o(.data) for uwTick
    stm32f1xx_hal.o(i.HAL_GetTickFreq) refers to stm32f1xx_hal.o(.data) for uwTickFreq
    stm32f1xx_hal.o(i.HAL_GetTickPrio) refers to stm32f1xx_hal.o(.data) for uwTickPrio
    stm32f1xx_hal.o(i.HAL_IncTick) refers to stm32f1xx_hal.o(.data) for uwTick
    stm32f1xx_hal.o(i.HAL_Init) refers to stm32f1xx_hal_cortex.o(i.HAL_NVIC_SetPriorityGrouping) for HAL_NVIC_SetPriorityGrouping
    stm32f1xx_hal.o(i.HAL_Init) refers to stm32f1xx_hal.o(i.HAL_InitTick) for HAL_InitTick
    stm32f1xx_hal.o(i.HAL_Init) refers to stm32f1xx_hal_msp.o(i.HAL_MspInit) for HAL_MspInit
    stm32f1xx_hal.o(i.HAL_InitTick) refers to stm32f1xx_hal_cortex.o(i.HAL_SYSTICK_Config) for HAL_SYSTICK_Config
    stm32f1xx_hal.o(i.HAL_InitTick) refers to stm32f1xx_hal_cortex.o(i.HAL_NVIC_SetPriority) for HAL_NVIC_SetPriority
    stm32f1xx_hal.o(i.HAL_InitTick) refers to stm32f1xx_hal.o(.data) for uwTickFreq
    stm32f1xx_hal.o(i.HAL_InitTick) refers to system_stm32f1xx.o(.data) for SystemCoreClock
    stm32f1xx_hal.o(i.HAL_SetTickFreq) refers to stm32f1xx_hal.o(i.HAL_InitTick) for HAL_InitTick
    stm32f1xx_hal.o(i.HAL_SetTickFreq) refers to stm32f1xx_hal.o(.data) for uwTickFreq
    stm32f1xx_hal_rcc.o(i.HAL_RCC_ClockConfig) refers to stm32f1xx_hal.o(i.HAL_GetTick) for HAL_GetTick
    stm32f1xx_hal_rcc.o(i.HAL_RCC_ClockConfig) refers to stm32f1xx_hal_rcc.o(i.HAL_RCC_GetSysClockFreq) for HAL_RCC_GetSysClockFreq
    stm32f1xx_hal_rcc.o(i.HAL_RCC_ClockConfig) refers to stm32f1xx_hal.o(i.HAL_InitTick) for HAL_InitTick
    stm32f1xx_hal_rcc.o(i.HAL_RCC_ClockConfig) refers to system_stm32f1xx.o(.constdata) for AHBPrescTable
    stm32f1xx_hal_rcc.o(i.HAL_RCC_ClockConfig) refers to system_stm32f1xx.o(.data) for SystemCoreClock
    stm32f1xx_hal_rcc.o(i.HAL_RCC_ClockConfig) refers to stm32f1xx_hal.o(.data) for uwTickPrio
    stm32f1xx_hal_rcc.o(i.HAL_RCC_DeInit) refers to stm32f1xx_hal.o(i.HAL_GetTick) for HAL_GetTick
    stm32f1xx_hal_rcc.o(i.HAL_RCC_DeInit) refers to stm32f1xx_hal.o(i.HAL_InitTick) for HAL_InitTick
    stm32f1xx_hal_rcc.o(i.HAL_RCC_DeInit) refers to system_stm32f1xx.o(.data) for SystemCoreClock
    stm32f1xx_hal_rcc.o(i.HAL_RCC_DeInit) refers to stm32f1xx_hal.o(.data) for uwTickPrio
    stm32f1xx_hal_rcc.o(i.HAL_RCC_GetHCLKFreq) refers to system_stm32f1xx.o(.data) for SystemCoreClock
    stm32f1xx_hal_rcc.o(i.HAL_RCC_GetPCLK1Freq) refers to stm32f1xx_hal_rcc.o(i.HAL_RCC_GetHCLKFreq) for HAL_RCC_GetHCLKFreq
    stm32f1xx_hal_rcc.o(i.HAL_RCC_GetPCLK1Freq) refers to system_stm32f1xx.o(.constdata) for APBPrescTable
    stm32f1xx_hal_rcc.o(i.HAL_RCC_GetPCLK2Freq) refers to stm32f1xx_hal_rcc.o(i.HAL_RCC_GetHCLKFreq) for HAL_RCC_GetHCLKFreq
    stm32f1xx_hal_rcc.o(i.HAL_RCC_GetPCLK2Freq) refers to system_stm32f1xx.o(.constdata) for APBPrescTable
    stm32f1xx_hal_rcc.o(i.HAL_RCC_GetSysClockFreq) refers to stm32f1xx_hal_rcc.o(.constdata) for aPLLMULFactorTable
    stm32f1xx_hal_rcc.o(i.HAL_RCC_MCOConfig) refers to stm32f1xx_hal_gpio.o(i.HAL_GPIO_Init) for HAL_GPIO_Init
    stm32f1xx_hal_rcc.o(i.HAL_RCC_NMI_IRQHandler) refers to stm32f1xx_hal_rcc.o(i.HAL_RCC_CSSCallback) for HAL_RCC_CSSCallback
    stm32f1xx_hal_rcc.o(i.HAL_RCC_OscConfig) refers to stm32f1xx_hal.o(i.HAL_GetTick) for HAL_GetTick
    stm32f1xx_hal_rcc.o(i.HAL_RCC_OscConfig) refers to stm32f1xx_hal_rcc.o(i.RCC_Delay) for RCC_Delay
    stm32f1xx_hal_rcc.o(i.RCC_Delay) refers to system_stm32f1xx.o(.data) for SystemCoreClock
    stm32f1xx_hal_rcc_ex.o(i.HAL_RCCEx_GetPeriphCLKFreq) refers to stm32f1xx_hal_rcc.o(i.HAL_RCC_GetPCLK2Freq) for HAL_RCC_GetPCLK2Freq
    stm32f1xx_hal_rcc_ex.o(i.HAL_RCCEx_GetPeriphCLKFreq) refers to stm32f1xx_hal_rcc_ex.o(.constdata) for aPLLMULFactorTable
    stm32f1xx_hal_rcc_ex.o(i.HAL_RCCEx_PeriphCLKConfig) refers to stm32f1xx_hal.o(i.HAL_GetTick) for HAL_GetTick
    stm32f1xx_hal_gpio.o(i.HAL_GPIO_EXTI_IRQHandler) refers to stm32f1xx_hal_gpio.o(i.HAL_GPIO_EXTI_Callback) for HAL_GPIO_EXTI_Callback
    stm32f1xx_hal_dma.o(i.HAL_DMA_PollForTransfer) refers to stm32f1xx_hal.o(i.HAL_GetTick) for HAL_GetTick
    stm32f1xx_hal_dma.o(i.HAL_DMA_Start) refers to stm32f1xx_hal_dma.o(i.DMA_SetConfig) for DMA_SetConfig
    stm32f1xx_hal_dma.o(i.HAL_DMA_Start_IT) refers to stm32f1xx_hal_dma.o(i.DMA_SetConfig) for DMA_SetConfig
    stm32f1xx_hal_cortex.o(i.HAL_NVIC_GetPriorityGrouping) refers to stm32f1xx_hal_cortex.o(i.__NVIC_GetPriorityGrouping) for __NVIC_GetPriorityGrouping
    stm32f1xx_hal_cortex.o(i.HAL_NVIC_SetPriority) refers to stm32f1xx_hal_cortex.o(i.__NVIC_GetPriorityGrouping) for __NVIC_GetPriorityGrouping
    stm32f1xx_hal_cortex.o(i.HAL_NVIC_SetPriority) refers to stm32f1xx_hal_cortex.o(i.__NVIC_SetPriority) for __NVIC_SetPriority
    stm32f1xx_hal_cortex.o(i.HAL_SYSTICK_Config) refers to stm32f1xx_hal_cortex.o(i.__NVIC_SetPriority) for __NVIC_SetPriority
    stm32f1xx_hal_cortex.o(i.HAL_SYSTICK_IRQHandler) refers to stm32f1xx_hal_cortex.o(i.HAL_SYSTICK_Callback) for HAL_SYSTICK_Callback
    stm32f1xx_hal_pwr.o(i.HAL_PWR_EnterSTOPMode) refers to stm32f1xx_hal_pwr.o(i.PWR_OverloadWfe) for PWR_OverloadWfe
    stm32f1xx_hal_pwr.o(i.HAL_PWR_PVD_IRQHandler) refers to stm32f1xx_hal_pwr.o(i.HAL_PWR_PVDCallback) for HAL_PWR_PVDCallback
    stm32f1xx_hal_flash.o(i.FLASH_Program_HalfWord) refers to stm32f1xx_hal_flash.o(.bss) for pFlash
    stm32f1xx_hal_flash.o(i.FLASH_SetErrorCode) refers to stm32f1xx_hal_flash.o(.bss) for pFlash
    stm32f1xx_hal_flash.o(i.FLASH_WaitForLastOperation) refers to stm32f1xx_hal.o(i.HAL_GetTick) for HAL_GetTick
    stm32f1xx_hal_flash.o(i.FLASH_WaitForLastOperation) refers to stm32f1xx_hal_flash.o(i.FLASH_SetErrorCode) for FLASH_SetErrorCode
    stm32f1xx_hal_flash.o(i.HAL_FLASH_GetError) refers to stm32f1xx_hal_flash.o(.bss) for pFlash
    stm32f1xx_hal_flash.o(i.HAL_FLASH_IRQHandler) refers to stm32f1xx_hal_flash.o(i.FLASH_SetErrorCode) for FLASH_SetErrorCode
    stm32f1xx_hal_flash.o(i.HAL_FLASH_IRQHandler) refers to stm32f1xx_hal_flash.o(i.HAL_FLASH_OperationErrorCallback) for HAL_FLASH_OperationErrorCallback
    stm32f1xx_hal_flash.o(i.HAL_FLASH_IRQHandler) refers to stm32f1xx_hal_flash.o(i.HAL_FLASH_EndOfOperationCallback) for HAL_FLASH_EndOfOperationCallback
    stm32f1xx_hal_flash.o(i.HAL_FLASH_IRQHandler) refers to stm32f1xx_hal_flash_ex.o(i.FLASH_PageErase) for FLASH_PageErase
    stm32f1xx_hal_flash.o(i.HAL_FLASH_IRQHandler) refers to stm32f1xx_hal_flash.o(i.FLASH_Program_HalfWord) for FLASH_Program_HalfWord
    stm32f1xx_hal_flash.o(i.HAL_FLASH_IRQHandler) refers to stm32f1xx_hal_flash.o(.bss) for pFlash
    stm32f1xx_hal_flash.o(i.HAL_FLASH_OB_Launch) refers to stm32f1xx_hal_cortex.o(i.HAL_NVIC_SystemReset) for HAL_NVIC_SystemReset
    stm32f1xx_hal_flash.o(i.HAL_FLASH_Program) refers to stm32f1xx_hal_flash.o(i.FLASH_WaitForLastOperation) for FLASH_WaitForLastOperation
    stm32f1xx_hal_flash.o(i.HAL_FLASH_Program) refers to llushr.o(.text) for __aeabi_llsr
    stm32f1xx_hal_flash.o(i.HAL_FLASH_Program) refers to stm32f1xx_hal_flash.o(i.FLASH_Program_HalfWord) for FLASH_Program_HalfWord
    stm32f1xx_hal_flash.o(i.HAL_FLASH_Program) refers to stm32f1xx_hal_flash.o(.bss) for pFlash
    stm32f1xx_hal_flash.o(i.HAL_FLASH_Program_IT) refers to stm32f1xx_hal_flash.o(i.FLASH_Program_HalfWord) for FLASH_Program_HalfWord
    stm32f1xx_hal_flash.o(i.HAL_FLASH_Program_IT) refers to stm32f1xx_hal_flash.o(.bss) for pFlash
    stm32f1xx_hal_flash_ex.o(i.FLASH_MassErase) refers to stm32f1xx_hal_flash.o(.bss) for pFlash
    stm32f1xx_hal_flash_ex.o(i.FLASH_OB_DisableWRP) refers to stm32f1xx_hal_flash_ex.o(i.FLASH_OB_GetWRP) for FLASH_OB_GetWRP
    stm32f1xx_hal_flash_ex.o(i.FLASH_OB_DisableWRP) refers to stm32f1xx_hal_flash.o(i.FLASH_WaitForLastOperation) for FLASH_WaitForLastOperation
    stm32f1xx_hal_flash_ex.o(i.FLASH_OB_DisableWRP) refers to stm32f1xx_hal_flash_ex.o(i.HAL_FLASHEx_OBErase) for HAL_FLASHEx_OBErase
    stm32f1xx_hal_flash_ex.o(i.FLASH_OB_DisableWRP) refers to stm32f1xx_hal_flash.o(.bss) for pFlash
    stm32f1xx_hal_flash_ex.o(i.FLASH_OB_EnableWRP) refers to stm32f1xx_hal_flash_ex.o(i.FLASH_OB_GetWRP) for FLASH_OB_GetWRP
    stm32f1xx_hal_flash_ex.o(i.FLASH_OB_EnableWRP) refers to stm32f1xx_hal_flash.o(i.FLASH_WaitForLastOperation) for FLASH_WaitForLastOperation
    stm32f1xx_hal_flash_ex.o(i.FLASH_OB_EnableWRP) refers to stm32f1xx_hal_flash_ex.o(i.HAL_FLASHEx_OBErase) for HAL_FLASHEx_OBErase
    stm32f1xx_hal_flash_ex.o(i.FLASH_OB_EnableWRP) refers to stm32f1xx_hal_flash.o(.bss) for pFlash
    stm32f1xx_hal_flash_ex.o(i.FLASH_OB_ProgramData) refers to stm32f1xx_hal_flash.o(i.FLASH_WaitForLastOperation) for FLASH_WaitForLastOperation
    stm32f1xx_hal_flash_ex.o(i.FLASH_OB_ProgramData) refers to stm32f1xx_hal_flash.o(.bss) for pFlash
    stm32f1xx_hal_flash_ex.o(i.FLASH_OB_RDP_LevelConfig) refers to stm32f1xx_hal_flash.o(i.FLASH_WaitForLastOperation) for FLASH_WaitForLastOperation
    stm32f1xx_hal_flash_ex.o(i.FLASH_OB_RDP_LevelConfig) refers to stm32f1xx_hal_flash.o(.bss) for pFlash
    stm32f1xx_hal_flash_ex.o(i.FLASH_OB_UserConfig) refers to stm32f1xx_hal_flash.o(i.FLASH_WaitForLastOperation) for FLASH_WaitForLastOperation
    stm32f1xx_hal_flash_ex.o(i.FLASH_OB_UserConfig) refers to stm32f1xx_hal_flash.o(.bss) for pFlash
    stm32f1xx_hal_flash_ex.o(i.FLASH_PageErase) refers to stm32f1xx_hal_flash.o(.bss) for pFlash
    stm32f1xx_hal_flash_ex.o(i.HAL_FLASHEx_Erase) refers to stm32f1xx_hal_flash.o(i.FLASH_WaitForLastOperation) for FLASH_WaitForLastOperation
    stm32f1xx_hal_flash_ex.o(i.HAL_FLASHEx_Erase) refers to stm32f1xx_hal_flash_ex.o(i.FLASH_MassErase) for FLASH_MassErase
    stm32f1xx_hal_flash_ex.o(i.HAL_FLASHEx_Erase) refers to stm32f1xx_hal_flash_ex.o(i.FLASH_PageErase) for FLASH_PageErase
    stm32f1xx_hal_flash_ex.o(i.HAL_FLASHEx_Erase) refers to stm32f1xx_hal_flash.o(.bss) for pFlash
    stm32f1xx_hal_flash_ex.o(i.HAL_FLASHEx_Erase_IT) refers to stm32f1xx_hal_flash_ex.o(i.FLASH_MassErase) for FLASH_MassErase
    stm32f1xx_hal_flash_ex.o(i.HAL_FLASHEx_Erase_IT) refers to stm32f1xx_hal_flash_ex.o(i.FLASH_PageErase) for FLASH_PageErase
    stm32f1xx_hal_flash_ex.o(i.HAL_FLASHEx_Erase_IT) refers to stm32f1xx_hal_flash.o(.bss) for pFlash
    stm32f1xx_hal_flash_ex.o(i.HAL_FLASHEx_OBErase) refers to stm32f1xx_hal_flash_ex.o(i.FLASH_OB_GetRDP) for FLASH_OB_GetRDP
    stm32f1xx_hal_flash_ex.o(i.HAL_FLASHEx_OBErase) refers to stm32f1xx_hal_flash.o(i.FLASH_WaitForLastOperation) for FLASH_WaitForLastOperation
    stm32f1xx_hal_flash_ex.o(i.HAL_FLASHEx_OBErase) refers to stm32f1xx_hal_flash_ex.o(i.FLASH_OB_RDP_LevelConfig) for FLASH_OB_RDP_LevelConfig
    stm32f1xx_hal_flash_ex.o(i.HAL_FLASHEx_OBErase) refers to stm32f1xx_hal_flash.o(.bss) for pFlash
    stm32f1xx_hal_flash_ex.o(i.HAL_FLASHEx_OBGetConfig) refers to stm32f1xx_hal_flash_ex.o(i.FLASH_OB_GetWRP) for FLASH_OB_GetWRP
    stm32f1xx_hal_flash_ex.o(i.HAL_FLASHEx_OBGetConfig) refers to stm32f1xx_hal_flash_ex.o(i.FLASH_OB_GetRDP) for FLASH_OB_GetRDP
    stm32f1xx_hal_flash_ex.o(i.HAL_FLASHEx_OBGetConfig) refers to stm32f1xx_hal_flash_ex.o(i.FLASH_OB_GetUser) for FLASH_OB_GetUser
    stm32f1xx_hal_flash_ex.o(i.HAL_FLASHEx_OBProgram) refers to stm32f1xx_hal_flash_ex.o(i.FLASH_OB_EnableWRP) for FLASH_OB_EnableWRP
    stm32f1xx_hal_flash_ex.o(i.HAL_FLASHEx_OBProgram) refers to stm32f1xx_hal_flash_ex.o(i.FLASH_OB_DisableWRP) for FLASH_OB_DisableWRP
    stm32f1xx_hal_flash_ex.o(i.HAL_FLASHEx_OBProgram) refers to stm32f1xx_hal_flash_ex.o(i.FLASH_OB_RDP_LevelConfig) for FLASH_OB_RDP_LevelConfig
    stm32f1xx_hal_flash_ex.o(i.HAL_FLASHEx_OBProgram) refers to stm32f1xx_hal_flash_ex.o(i.FLASH_OB_UserConfig) for FLASH_OB_UserConfig
    stm32f1xx_hal_flash_ex.o(i.HAL_FLASHEx_OBProgram) refers to stm32f1xx_hal_flash_ex.o(i.FLASH_OB_ProgramData) for FLASH_OB_ProgramData
    stm32f1xx_hal_flash_ex.o(i.HAL_FLASHEx_OBProgram) refers to stm32f1xx_hal_flash.o(.bss) for pFlash
    stm32f1xx_hal_uart.o(i.HAL_HalfDuplex_Init) refers to stm32f1xx_hal_msp.o(i.HAL_UART_MspInit) for HAL_UART_MspInit
    stm32f1xx_hal_uart.o(i.HAL_HalfDuplex_Init) refers to stm32f1xx_hal_uart.o(i.UART_SetConfig) for UART_SetConfig
    stm32f1xx_hal_uart.o(i.HAL_LIN_Init) refers to stm32f1xx_hal_msp.o(i.HAL_UART_MspInit) for HAL_UART_MspInit
    stm32f1xx_hal_uart.o(i.HAL_LIN_Init) refers to stm32f1xx_hal_uart.o(i.UART_SetConfig) for UART_SetConfig
    stm32f1xx_hal_uart.o(i.HAL_MultiProcessor_Init) refers to stm32f1xx_hal_msp.o(i.HAL_UART_MspInit) for HAL_UART_MspInit
    stm32f1xx_hal_uart.o(i.HAL_MultiProcessor_Init) refers to stm32f1xx_hal_uart.o(i.UART_SetConfig) for UART_SetConfig
    stm32f1xx_hal_uart.o(i.HAL_UARTEx_ReceiveToIdle) refers to stm32f1xx_hal.o(i.HAL_GetTick) for HAL_GetTick
    stm32f1xx_hal_uart.o(i.HAL_UARTEx_ReceiveToIdle_DMA) refers to stm32f1xx_hal_uart.o(i.UART_Start_Receive_DMA) for UART_Start_Receive_DMA
    stm32f1xx_hal_uart.o(i.HAL_UARTEx_ReceiveToIdle_IT) refers to stm32f1xx_hal_uart.o(i.UART_Start_Receive_IT) for UART_Start_Receive_IT
    stm32f1xx_hal_uart.o(i.HAL_UART_Abort) refers to stm32f1xx_hal_dma.o(i.HAL_DMA_Abort) for HAL_DMA_Abort
    stm32f1xx_hal_uart.o(i.HAL_UART_Abort) refers to stm32f1xx_hal_dma.o(i.HAL_DMA_GetError) for HAL_DMA_GetError
    stm32f1xx_hal_uart.o(i.HAL_UART_AbortReceive) refers to stm32f1xx_hal_dma.o(i.HAL_DMA_Abort) for HAL_DMA_Abort
    stm32f1xx_hal_uart.o(i.HAL_UART_AbortReceive) refers to stm32f1xx_hal_dma.o(i.HAL_DMA_GetError) for HAL_DMA_GetError
    stm32f1xx_hal_uart.o(i.HAL_UART_AbortReceive_IT) refers to stm32f1xx_hal_dma.o(i.HAL_DMA_Abort_IT) for HAL_DMA_Abort_IT
    stm32f1xx_hal_uart.o(i.HAL_UART_AbortReceive_IT) refers to stm32f1xx_hal_uart.o(i.HAL_UART_AbortReceiveCpltCallback) for HAL_UART_AbortReceiveCpltCallback
    stm32f1xx_hal_uart.o(i.HAL_UART_AbortReceive_IT) refers to stm32f1xx_hal_uart.o(i.UART_DMARxOnlyAbortCallback) for UART_DMARxOnlyAbortCallback
    stm32f1xx_hal_uart.o(i.HAL_UART_AbortTransmit) refers to stm32f1xx_hal_dma.o(i.HAL_DMA_Abort) for HAL_DMA_Abort
    stm32f1xx_hal_uart.o(i.HAL_UART_AbortTransmit) refers to stm32f1xx_hal_dma.o(i.HAL_DMA_GetError) for HAL_DMA_GetError
    stm32f1xx_hal_uart.o(i.HAL_UART_AbortTransmit_IT) refers to stm32f1xx_hal_dma.o(i.HAL_DMA_Abort_IT) for HAL_DMA_Abort_IT
    stm32f1xx_hal_uart.o(i.HAL_UART_AbortTransmit_IT) refers to stm32f1xx_hal_uart.o(i.HAL_UART_AbortTransmitCpltCallback) for HAL_UART_AbortTransmitCpltCallback
    stm32f1xx_hal_uart.o(i.HAL_UART_AbortTransmit_IT) refers to stm32f1xx_hal_uart.o(i.UART_DMATxOnlyAbortCallback) for UART_DMATxOnlyAbortCallback
    stm32f1xx_hal_uart.o(i.HAL_UART_Abort_IT) refers to stm32f1xx_hal_dma.o(i.HAL_DMA_Abort_IT) for HAL_DMA_Abort_IT
    stm32f1xx_hal_uart.o(i.HAL_UART_Abort_IT) refers to stm32f1xx_hal_uart.o(i.HAL_UART_AbortCpltCallback) for HAL_UART_AbortCpltCallback
    stm32f1xx_hal_uart.o(i.HAL_UART_Abort_IT) refers to stm32f1xx_hal_uart.o(i.UART_DMATxAbortCallback) for UART_DMATxAbortCallback
    stm32f1xx_hal_uart.o(i.HAL_UART_Abort_IT) refers to stm32f1xx_hal_uart.o(i.UART_DMARxAbortCallback) for UART_DMARxAbortCallback
    stm32f1xx_hal_uart.o(i.HAL_UART_DMAStop) refers to stm32f1xx_hal_dma.o(i.HAL_DMA_Abort) for HAL_DMA_Abort
    stm32f1xx_hal_uart.o(i.HAL_UART_DMAStop) refers to stm32f1xx_hal_uart.o(i.UART_EndTxTransfer) for UART_EndTxTransfer
    stm32f1xx_hal_uart.o(i.HAL_UART_DMAStop) refers to stm32f1xx_hal_uart.o(i.UART_EndRxTransfer) for UART_EndRxTransfer
    stm32f1xx_hal_uart.o(i.HAL_UART_DeInit) refers to stm32f1xx_hal_msp.o(i.HAL_UART_MspDeInit) for HAL_UART_MspDeInit
    stm32f1xx_hal_uart.o(i.HAL_UART_IRQHandler) refers to stm32f1xx_hal_uart.o(i.UART_Receive_IT) for UART_Receive_IT
    stm32f1xx_hal_uart.o(i.HAL_UART_IRQHandler) refers to stm32f1xx_hal_uart.o(i.UART_EndRxTransfer) for UART_EndRxTransfer
    stm32f1xx_hal_uart.o(i.HAL_UART_IRQHandler) refers to stm32f1xx_hal_dma.o(i.HAL_DMA_Abort_IT) for HAL_DMA_Abort_IT
    stm32f1xx_hal_uart.o(i.HAL_UART_IRQHandler) refers to stm32f1xx_hal_uart.o(i.HAL_UART_ErrorCallback) for HAL_UART_ErrorCallback
    stm32f1xx_hal_uart.o(i.HAL_UART_IRQHandler) refers to stm32f1xx_hal_dma.o(i.HAL_DMA_Abort) for HAL_DMA_Abort
    stm32f1xx_hal_uart.o(i.HAL_UART_IRQHandler) refers to stm32f1xx_hal_uart.o(i.HAL_UARTEx_RxEventCallback) for HAL_UARTEx_RxEventCallback
    stm32f1xx_hal_uart.o(i.HAL_UART_IRQHandler) refers to stm32f1xx_hal_uart.o(i.UART_Transmit_IT) for UART_Transmit_IT
    stm32f1xx_hal_uart.o(i.HAL_UART_IRQHandler) refers to stm32f1xx_hal_uart.o(i.UART_EndTransmit_IT) for UART_EndTransmit_IT
    stm32f1xx_hal_uart.o(i.HAL_UART_IRQHandler) refers to stm32f1xx_hal_uart.o(i.UART_DMAAbortOnError) for UART_DMAAbortOnError
    stm32f1xx_hal_uart.o(i.HAL_UART_Init) refers to stm32f1xx_hal_msp.o(i.HAL_UART_MspInit) for HAL_UART_MspInit
    stm32f1xx_hal_uart.o(i.HAL_UART_Init) refers to stm32f1xx_hal_uart.o(i.UART_SetConfig) for UART_SetConfig
    stm32f1xx_hal_uart.o(i.HAL_UART_Receive) refers to stm32f1xx_hal.o(i.HAL_GetTick) for HAL_GetTick
    stm32f1xx_hal_uart.o(i.HAL_UART_Receive) refers to stm32f1xx_hal_uart.o(i.UART_WaitOnFlagUntilTimeout) for UART_WaitOnFlagUntilTimeout
    stm32f1xx_hal_uart.o(i.HAL_UART_Receive_DMA) refers to stm32f1xx_hal_uart.o(i.UART_Start_Receive_DMA) for UART_Start_Receive_DMA
    stm32f1xx_hal_uart.o(i.HAL_UART_Receive_IT) refers to stm32f1xx_hal_uart.o(i.UART_Start_Receive_IT) for UART_Start_Receive_IT
    stm32f1xx_hal_uart.o(i.HAL_UART_Transmit) refers to stm32f1xx_hal.o(i.HAL_GetTick) for HAL_GetTick
    stm32f1xx_hal_uart.o(i.HAL_UART_Transmit) refers to stm32f1xx_hal_uart.o(i.UART_WaitOnFlagUntilTimeout) for UART_WaitOnFlagUntilTimeout
    stm32f1xx_hal_uart.o(i.HAL_UART_Transmit_DMA) refers to stm32f1xx_hal_dma.o(i.HAL_DMA_Start_IT) for HAL_DMA_Start_IT
    stm32f1xx_hal_uart.o(i.HAL_UART_Transmit_DMA) refers to stm32f1xx_hal_uart.o(i.UART_DMATransmitCplt) for UART_DMATransmitCplt
    stm32f1xx_hal_uart.o(i.HAL_UART_Transmit_DMA) refers to stm32f1xx_hal_uart.o(i.UART_DMATxHalfCplt) for UART_DMATxHalfCplt
    stm32f1xx_hal_uart.o(i.HAL_UART_Transmit_DMA) refers to stm32f1xx_hal_uart.o(i.UART_DMAError) for UART_DMAError
    stm32f1xx_hal_uart.o(i.UART_DMAAbortOnError) refers to stm32f1xx_hal_uart.o(i.HAL_UART_ErrorCallback) for HAL_UART_ErrorCallback
    stm32f1xx_hal_uart.o(i.UART_DMAError) refers to stm32f1xx_hal_uart.o(i.UART_EndTxTransfer) for UART_EndTxTransfer
    stm32f1xx_hal_uart.o(i.UART_DMAError) refers to stm32f1xx_hal_uart.o(i.UART_EndRxTransfer) for UART_EndRxTransfer
    stm32f1xx_hal_uart.o(i.UART_DMAError) refers to stm32f1xx_hal_uart.o(i.HAL_UART_ErrorCallback) for HAL_UART_ErrorCallback
    stm32f1xx_hal_uart.o(i.UART_DMAReceiveCplt) refers to stm32f1xx_hal_uart.o(i.HAL_UARTEx_RxEventCallback) for HAL_UARTEx_RxEventCallback
    stm32f1xx_hal_uart.o(i.UART_DMAReceiveCplt) refers to stm32f1xx_hal_uart.o(i.HAL_UART_RxCpltCallback) for HAL_UART_RxCpltCallback
    stm32f1xx_hal_uart.o(i.UART_DMARxAbortCallback) refers to stm32f1xx_hal_uart.o(i.HAL_UART_AbortCpltCallback) for HAL_UART_AbortCpltCallback
    stm32f1xx_hal_uart.o(i.UART_DMARxHalfCplt) refers to stm32f1xx_hal_uart.o(i.HAL_UARTEx_RxEventCallback) for HAL_UARTEx_RxEventCallback
    stm32f1xx_hal_uart.o(i.UART_DMARxHalfCplt) refers to stm32f1xx_hal_uart.o(i.HAL_UART_RxHalfCpltCallback) for HAL_UART_RxHalfCpltCallback
    stm32f1xx_hal_uart.o(i.UART_DMARxOnlyAbortCallback) refers to stm32f1xx_hal_uart.o(i.HAL_UART_AbortReceiveCpltCallback) for HAL_UART_AbortReceiveCpltCallback
    stm32f1xx_hal_uart.o(i.UART_DMATransmitCplt) refers to stm32f1xx_hal_uart.o(i.HAL_UART_TxCpltCallback) for HAL_UART_TxCpltCallback
    stm32f1xx_hal_uart.o(i.UART_DMATxAbortCallback) refers to stm32f1xx_hal_uart.o(i.HAL_UART_AbortCpltCallback) for HAL_UART_AbortCpltCallback
    stm32f1xx_hal_uart.o(i.UART_DMATxHalfCplt) refers to stm32f1xx_hal_uart.o(i.HAL_UART_TxHalfCpltCallback) for HAL_UART_TxHalfCpltCallback
    stm32f1xx_hal_uart.o(i.UART_DMATxOnlyAbortCallback) refers to stm32f1xx_hal_uart.o(i.HAL_UART_AbortTransmitCpltCallback) for HAL_UART_AbortTransmitCpltCallback
    stm32f1xx_hal_uart.o(i.UART_EndTransmit_IT) refers to stm32f1xx_hal_uart.o(i.HAL_UART_TxCpltCallback) for HAL_UART_TxCpltCallback
    stm32f1xx_hal_uart.o(i.UART_Receive_IT) refers to stm32f1xx_hal_uart.o(i.HAL_UARTEx_RxEventCallback) for HAL_UARTEx_RxEventCallback
    stm32f1xx_hal_uart.o(i.UART_Receive_IT) refers to stm32f1xx_hal_uart.o(i.HAL_UART_RxCpltCallback) for HAL_UART_RxCpltCallback
    stm32f1xx_hal_uart.o(i.UART_SetConfig) refers to stm32f1xx_hal_rcc.o(i.HAL_RCC_GetPCLK2Freq) for HAL_RCC_GetPCLK2Freq
    stm32f1xx_hal_uart.o(i.UART_SetConfig) refers to stm32f1xx_hal_rcc.o(i.HAL_RCC_GetPCLK1Freq) for HAL_RCC_GetPCLK1Freq
    stm32f1xx_hal_uart.o(i.UART_Start_Receive_DMA) refers to stm32f1xx_hal_dma.o(i.HAL_DMA_Start_IT) for HAL_DMA_Start_IT
    stm32f1xx_hal_uart.o(i.UART_Start_Receive_DMA) refers to stm32f1xx_hal_uart.o(i.UART_DMAReceiveCplt) for UART_DMAReceiveCplt
    stm32f1xx_hal_uart.o(i.UART_Start_Receive_DMA) refers to stm32f1xx_hal_uart.o(i.UART_DMARxHalfCplt) for UART_DMARxHalfCplt
    stm32f1xx_hal_uart.o(i.UART_Start_Receive_DMA) refers to stm32f1xx_hal_uart.o(i.UART_DMAError) for UART_DMAError
    stm32f1xx_hal_uart.o(i.UART_WaitOnFlagUntilTimeout) refers to stm32f1xx_hal.o(i.HAL_GetTick) for HAL_GetTick
    stm32f1xx_hal_uart.o(i.UART_WaitOnFlagUntilTimeout) refers to stm32f1xx_hal_uart.o(i.UART_EndRxTransfer) for UART_EndRxTransfer
    system_stm32f1xx.o(i.SystemCoreClockUpdate) refers to system_stm32f1xx.o(.data) for SystemCoreClock
    system_stm32f1xx.o(i.SystemCoreClockUpdate) refers to system_stm32f1xx.o(.constdata) for AHBPrescTable
    event_groups.o(i.vEventGroupClearBitsCallback) refers to event_groups.o(i.xEventGroupClearBits) for xEventGroupClearBits
    event_groups.o(i.vEventGroupDelete) refers to tasks.o(i.vTaskSuspendAll) for vTaskSuspendAll
    event_groups.o(i.vEventGroupDelete) refers to tasks.o(i.vTaskRemoveFromUnorderedEventList) for vTaskRemoveFromUnorderedEventList
    event_groups.o(i.vEventGroupDelete) refers to heap_4.o(i.vPortFree) for vPortFree
    event_groups.o(i.vEventGroupDelete) refers to tasks.o(i.xTaskResumeAll) for xTaskResumeAll
    event_groups.o(i.vEventGroupSetBitsCallback) refers to event_groups.o(i.xEventGroupSetBits) for xEventGroupSetBits
    event_groups.o(i.xEventGroupClearBits) refers to port.o(i.vPortEnterCritical) for vPortEnterCritical
    event_groups.o(i.xEventGroupClearBits) refers to port.o(i.vPortExitCritical) for vPortExitCritical
    event_groups.o(i.xEventGroupClearBitsFromISR) refers to timers.o(i.xTimerPendFunctionCallFromISR) for xTimerPendFunctionCallFromISR
    event_groups.o(i.xEventGroupClearBitsFromISR) refers to event_groups.o(i.vEventGroupClearBitsCallback) for vEventGroupClearBitsCallback
    event_groups.o(i.xEventGroupCreate) refers to heap_4.o(i.pvPortMalloc) for pvPortMalloc
    event_groups.o(i.xEventGroupCreate) refers to list.o(i.vListInitialise) for vListInitialise
    event_groups.o(i.xEventGroupCreateStatic) refers to list.o(i.vListInitialise) for vListInitialise
    event_groups.o(i.xEventGroupSetBits) refers to tasks.o(i.vTaskSuspendAll) for vTaskSuspendAll
    event_groups.o(i.xEventGroupSetBits) refers to tasks.o(i.vTaskRemoveFromUnorderedEventList) for vTaskRemoveFromUnorderedEventList
    event_groups.o(i.xEventGroupSetBits) refers to tasks.o(i.xTaskResumeAll) for xTaskResumeAll
    event_groups.o(i.xEventGroupSetBitsFromISR) refers to timers.o(i.xTimerPendFunctionCallFromISR) for xTimerPendFunctionCallFromISR
    event_groups.o(i.xEventGroupSetBitsFromISR) refers to event_groups.o(i.vEventGroupSetBitsCallback) for vEventGroupSetBitsCallback
    event_groups.o(i.xEventGroupSync) refers to tasks.o(i.xTaskGetSchedulerState) for xTaskGetSchedulerState
    event_groups.o(i.xEventGroupSync) refers to tasks.o(i.vTaskSuspendAll) for vTaskSuspendAll
    event_groups.o(i.xEventGroupSync) refers to event_groups.o(i.xEventGroupSetBits) for xEventGroupSetBits
    event_groups.o(i.xEventGroupSync) refers to tasks.o(i.vTaskPlaceOnUnorderedEventList) for vTaskPlaceOnUnorderedEventList
    event_groups.o(i.xEventGroupSync) refers to tasks.o(i.xTaskResumeAll) for xTaskResumeAll
    event_groups.o(i.xEventGroupSync) refers to tasks.o(i.uxTaskResetEventItemValue) for uxTaskResetEventItemValue
    event_groups.o(i.xEventGroupSync) refers to port.o(i.vPortEnterCritical) for vPortEnterCritical
    event_groups.o(i.xEventGroupSync) refers to port.o(i.vPortExitCritical) for vPortExitCritical
    event_groups.o(i.xEventGroupWaitBits) refers to tasks.o(i.xTaskGetSchedulerState) for xTaskGetSchedulerState
    event_groups.o(i.xEventGroupWaitBits) refers to tasks.o(i.vTaskSuspendAll) for vTaskSuspendAll
    event_groups.o(i.xEventGroupWaitBits) refers to event_groups.o(i.prvTestWaitCondition) for prvTestWaitCondition
    event_groups.o(i.xEventGroupWaitBits) refers to tasks.o(i.vTaskPlaceOnUnorderedEventList) for vTaskPlaceOnUnorderedEventList
    event_groups.o(i.xEventGroupWaitBits) refers to tasks.o(i.xTaskResumeAll) for xTaskResumeAll
    event_groups.o(i.xEventGroupWaitBits) refers to tasks.o(i.uxTaskResetEventItemValue) for uxTaskResetEventItemValue
    event_groups.o(i.xEventGroupWaitBits) refers to port.o(i.vPortEnterCritical) for vPortEnterCritical
    event_groups.o(i.xEventGroupWaitBits) refers to port.o(i.vPortExitCritical) for vPortExitCritical
    queue.o(i.pcQueueGetName) refers to queue.o(.bss) for xQueueRegistry
    queue.o(i.prvCopyDataFromQueue) refers to memcpya.o(.text) for __aeabi_memcpy
    queue.o(i.prvCopyDataToQueue) refers to tasks.o(i.xTaskPriorityDisinherit) for xTaskPriorityDisinherit
    queue.o(i.prvCopyDataToQueue) refers to memcpya.o(.text) for __aeabi_memcpy
    queue.o(i.prvInitialiseMutex) refers to queue.o(i.xQueueGenericSend) for xQueueGenericSend
    queue.o(i.prvInitialiseNewQueue) refers to queue.o(i.xQueueGenericReset) for xQueueGenericReset
    queue.o(i.prvIsQueueEmpty) refers to port.o(i.vPortEnterCritical) for vPortEnterCritical
    queue.o(i.prvIsQueueEmpty) refers to port.o(i.vPortExitCritical) for vPortExitCritical
    queue.o(i.prvIsQueueFull) refers to port.o(i.vPortEnterCritical) for vPortEnterCritical
    queue.o(i.prvIsQueueFull) refers to port.o(i.vPortExitCritical) for vPortExitCritical
    queue.o(i.prvUnlockQueue) refers to port.o(i.vPortEnterCritical) for vPortEnterCritical
    queue.o(i.prvUnlockQueue) refers to tasks.o(i.xTaskRemoveFromEventList) for xTaskRemoveFromEventList
    queue.o(i.prvUnlockQueue) refers to tasks.o(i.vTaskMissedYield) for vTaskMissedYield
    queue.o(i.prvUnlockQueue) refers to port.o(i.vPortExitCritical) for vPortExitCritical
    queue.o(i.uxQueueMessagesWaiting) refers to port.o(i.vPortEnterCritical) for vPortEnterCritical
    queue.o(i.uxQueueMessagesWaiting) refers to port.o(i.vPortExitCritical) for vPortExitCritical
    queue.o(i.uxQueueSpacesAvailable) refers to port.o(i.vPortEnterCritical) for vPortEnterCritical
    queue.o(i.uxQueueSpacesAvailable) refers to port.o(i.vPortExitCritical) for vPortExitCritical
    queue.o(i.vQueueAddToRegistry) refers to queue.o(.bss) for xQueueRegistry
    queue.o(i.vQueueDelete) refers to queue.o(i.vQueueUnregisterQueue) for vQueueUnregisterQueue
    queue.o(i.vQueueDelete) refers to heap_4.o(i.vPortFree) for vPortFree
    queue.o(i.vQueueUnregisterQueue) refers to queue.o(.bss) for xQueueRegistry
    queue.o(i.vQueueWaitForMessageRestricted) refers to port.o(i.vPortEnterCritical) for vPortEnterCritical
    queue.o(i.vQueueWaitForMessageRestricted) refers to port.o(i.vPortExitCritical) for vPortExitCritical
    queue.o(i.vQueueWaitForMessageRestricted) refers to tasks.o(i.vTaskPlaceOnEventListRestricted) for vTaskPlaceOnEventListRestricted
    queue.o(i.vQueueWaitForMessageRestricted) refers to queue.o(i.prvUnlockQueue) for prvUnlockQueue
    queue.o(i.xQueueCreateCountingSemaphore) refers to queue.o(i.xQueueGenericCreate) for xQueueGenericCreate
    queue.o(i.xQueueCreateCountingSemaphoreStatic) refers to queue.o(i.xQueueGenericCreateStatic) for xQueueGenericCreateStatic
    queue.o(i.xQueueCreateMutex) refers to queue.o(i.xQueueGenericCreate) for xQueueGenericCreate
    queue.o(i.xQueueCreateMutex) refers to queue.o(i.prvInitialiseMutex) for prvInitialiseMutex
    queue.o(i.xQueueCreateMutexStatic) refers to queue.o(i.xQueueGenericCreateStatic) for xQueueGenericCreateStatic
    queue.o(i.xQueueCreateMutexStatic) refers to queue.o(i.prvInitialiseMutex) for prvInitialiseMutex
    queue.o(i.xQueueGenericCreate) refers to heap_4.o(i.pvPortMalloc) for pvPortMalloc
    queue.o(i.xQueueGenericCreate) refers to queue.o(i.prvInitialiseNewQueue) for prvInitialiseNewQueue
    queue.o(i.xQueueGenericCreateStatic) refers to queue.o(i.prvInitialiseNewQueue) for prvInitialiseNewQueue
    queue.o(i.xQueueGenericReset) refers to port.o(i.vPortEnterCritical) for vPortEnterCritical
    queue.o(i.xQueueGenericReset) refers to tasks.o(i.xTaskRemoveFromEventList) for xTaskRemoveFromEventList
    queue.o(i.xQueueGenericReset) refers to list.o(i.vListInitialise) for vListInitialise
    queue.o(i.xQueueGenericReset) refers to port.o(i.vPortExitCritical) for vPortExitCritical
    queue.o(i.xQueueGenericSend) refers to tasks.o(i.xTaskGetSchedulerState) for xTaskGetSchedulerState
    queue.o(i.xQueueGenericSend) refers to port.o(i.vPortEnterCritical) for vPortEnterCritical
    queue.o(i.xQueueGenericSend) refers to queue.o(i.prvCopyDataToQueue) for prvCopyDataToQueue
    queue.o(i.xQueueGenericSend) refers to tasks.o(i.xTaskRemoveFromEventList) for xTaskRemoveFromEventList
    queue.o(i.xQueueGenericSend) refers to port.o(i.vPortExitCritical) for vPortExitCritical
    queue.o(i.xQueueGenericSend) refers to tasks.o(i.vTaskInternalSetTimeOutState) for vTaskInternalSetTimeOutState
    queue.o(i.xQueueGenericSend) refers to tasks.o(i.vTaskSuspendAll) for vTaskSuspendAll
    queue.o(i.xQueueGenericSend) refers to tasks.o(i.xTaskCheckForTimeOut) for xTaskCheckForTimeOut
    queue.o(i.xQueueGenericSend) refers to queue.o(i.prvIsQueueFull) for prvIsQueueFull
    queue.o(i.xQueueGenericSend) refers to tasks.o(i.vTaskPlaceOnEventList) for vTaskPlaceOnEventList
    queue.o(i.xQueueGenericSend) refers to queue.o(i.prvUnlockQueue) for prvUnlockQueue
    queue.o(i.xQueueGenericSend) refers to tasks.o(i.xTaskResumeAll) for xTaskResumeAll
    queue.o(i.xQueueGenericSendFromISR) refers to port.o(i.vPortValidateInterruptPriority) for vPortValidateInterruptPriority
    queue.o(i.xQueueGenericSendFromISR) refers to queue.o(i.prvCopyDataToQueue) for prvCopyDataToQueue
    queue.o(i.xQueueGenericSendFromISR) refers to tasks.o(i.xTaskRemoveFromEventList) for xTaskRemoveFromEventList
    queue.o(i.xQueueGetMutexHolder) refers to port.o(i.vPortEnterCritical) for vPortEnterCritical
    queue.o(i.xQueueGetMutexHolder) refers to port.o(i.vPortExitCritical) for vPortExitCritical
    queue.o(i.xQueueGiveFromISR) refers to port.o(i.vPortValidateInterruptPriority) for vPortValidateInterruptPriority
    queue.o(i.xQueueGiveFromISR) refers to tasks.o(i.xTaskRemoveFromEventList) for xTaskRemoveFromEventList
    queue.o(i.xQueueGiveMutexRecursive) refers to tasks.o(i.xTaskGetCurrentTaskHandle) for xTaskGetCurrentTaskHandle
    queue.o(i.xQueueGiveMutexRecursive) refers to queue.o(i.xQueueGenericSend) for xQueueGenericSend
    queue.o(i.xQueuePeek) refers to tasks.o(i.xTaskGetSchedulerState) for xTaskGetSchedulerState
    queue.o(i.xQueuePeek) refers to port.o(i.vPortEnterCritical) for vPortEnterCritical
    queue.o(i.xQueuePeek) refers to queue.o(i.prvCopyDataFromQueue) for prvCopyDataFromQueue
    queue.o(i.xQueuePeek) refers to tasks.o(i.xTaskRemoveFromEventList) for xTaskRemoveFromEventList
    queue.o(i.xQueuePeek) refers to port.o(i.vPortExitCritical) for vPortExitCritical
    queue.o(i.xQueuePeek) refers to tasks.o(i.vTaskInternalSetTimeOutState) for vTaskInternalSetTimeOutState
    queue.o(i.xQueuePeek) refers to tasks.o(i.vTaskSuspendAll) for vTaskSuspendAll
    queue.o(i.xQueuePeek) refers to tasks.o(i.xTaskCheckForTimeOut) for xTaskCheckForTimeOut
    queue.o(i.xQueuePeek) refers to queue.o(i.prvIsQueueEmpty) for prvIsQueueEmpty
    queue.o(i.xQueuePeek) refers to tasks.o(i.vTaskPlaceOnEventList) for vTaskPlaceOnEventList
    queue.o(i.xQueuePeek) refers to queue.o(i.prvUnlockQueue) for prvUnlockQueue
    queue.o(i.xQueuePeek) refers to tasks.o(i.xTaskResumeAll) for xTaskResumeAll
    queue.o(i.xQueuePeekFromISR) refers to port.o(i.vPortValidateInterruptPriority) for vPortValidateInterruptPriority
    queue.o(i.xQueuePeekFromISR) refers to queue.o(i.prvCopyDataFromQueue) for prvCopyDataFromQueue
    queue.o(i.xQueueReceive) refers to tasks.o(i.xTaskGetSchedulerState) for xTaskGetSchedulerState
    queue.o(i.xQueueReceive) refers to port.o(i.vPortEnterCritical) for vPortEnterCritical
    queue.o(i.xQueueReceive) refers to queue.o(i.prvCopyDataFromQueue) for prvCopyDataFromQueue
    queue.o(i.xQueueReceive) refers to tasks.o(i.xTaskRemoveFromEventList) for xTaskRemoveFromEventList
    queue.o(i.xQueueReceive) refers to port.o(i.vPortExitCritical) for vPortExitCritical
    queue.o(i.xQueueReceive) refers to tasks.o(i.vTaskInternalSetTimeOutState) for vTaskInternalSetTimeOutState
    queue.o(i.xQueueReceive) refers to tasks.o(i.vTaskSuspendAll) for vTaskSuspendAll
    queue.o(i.xQueueReceive) refers to tasks.o(i.xTaskCheckForTimeOut) for xTaskCheckForTimeOut
    queue.o(i.xQueueReceive) refers to queue.o(i.prvIsQueueEmpty) for prvIsQueueEmpty
    queue.o(i.xQueueReceive) refers to tasks.o(i.vTaskPlaceOnEventList) for vTaskPlaceOnEventList
    queue.o(i.xQueueReceive) refers to queue.o(i.prvUnlockQueue) for prvUnlockQueue
    queue.o(i.xQueueReceive) refers to tasks.o(i.xTaskResumeAll) for xTaskResumeAll
    queue.o(i.xQueueReceiveFromISR) refers to port.o(i.vPortValidateInterruptPriority) for vPortValidateInterruptPriority
    queue.o(i.xQueueReceiveFromISR) refers to queue.o(i.prvCopyDataFromQueue) for prvCopyDataFromQueue
    queue.o(i.xQueueReceiveFromISR) refers to tasks.o(i.xTaskRemoveFromEventList) for xTaskRemoveFromEventList
    queue.o(i.xQueueSemaphoreTake) refers to tasks.o(i.xTaskGetSchedulerState) for xTaskGetSchedulerState
    queue.o(i.xQueueSemaphoreTake) refers to port.o(i.vPortEnterCritical) for vPortEnterCritical
    queue.o(i.xQueueSemaphoreTake) refers to tasks.o(i.pvTaskIncrementMutexHeldCount) for pvTaskIncrementMutexHeldCount
    queue.o(i.xQueueSemaphoreTake) refers to tasks.o(i.xTaskRemoveFromEventList) for xTaskRemoveFromEventList
    queue.o(i.xQueueSemaphoreTake) refers to port.o(i.vPortExitCritical) for vPortExitCritical
    queue.o(i.xQueueSemaphoreTake) refers to tasks.o(i.vTaskInternalSetTimeOutState) for vTaskInternalSetTimeOutState
    queue.o(i.xQueueSemaphoreTake) refers to tasks.o(i.vTaskSuspendAll) for vTaskSuspendAll
    queue.o(i.xQueueSemaphoreTake) refers to tasks.o(i.xTaskCheckForTimeOut) for xTaskCheckForTimeOut
    queue.o(i.xQueueSemaphoreTake) refers to queue.o(i.prvIsQueueEmpty) for prvIsQueueEmpty
    queue.o(i.xQueueSemaphoreTake) refers to tasks.o(i.xTaskPriorityInherit) for xTaskPriorityInherit
    queue.o(i.xQueueSemaphoreTake) refers to tasks.o(i.vTaskPlaceOnEventList) for vTaskPlaceOnEventList
    queue.o(i.xQueueSemaphoreTake) refers to queue.o(i.prvUnlockQueue) for prvUnlockQueue
    queue.o(i.xQueueSemaphoreTake) refers to tasks.o(i.xTaskResumeAll) for xTaskResumeAll
    queue.o(i.xQueueSemaphoreTake) refers to queue.o(i.prvGetDisinheritPriorityAfterTimeout) for prvGetDisinheritPriorityAfterTimeout
    queue.o(i.xQueueSemaphoreTake) refers to tasks.o(i.vTaskPriorityDisinheritAfterTimeout) for vTaskPriorityDisinheritAfterTimeout
    queue.o(i.xQueueTakeMutexRecursive) refers to tasks.o(i.xTaskGetCurrentTaskHandle) for xTaskGetCurrentTaskHandle
    queue.o(i.xQueueTakeMutexRecursive) refers to queue.o(i.xQueueSemaphoreTake) for xQueueSemaphoreTake
    stream_buffer.o(i.prvInitialiseNewStreamBuffer) refers to memseta.o(.text) for memset
    stream_buffer.o(i.prvReadBytesFromBuffer) refers to memcpya.o(.text) for __aeabi_memcpy
    stream_buffer.o(i.prvReadMessageFromBuffer) refers to stream_buffer.o(i.prvReadBytesFromBuffer) for prvReadBytesFromBuffer
    stream_buffer.o(i.prvWriteBytesToBuffer) refers to memcpya.o(.text) for __aeabi_memcpy
    stream_buffer.o(i.prvWriteMessageToBuffer) refers to stream_buffer.o(i.prvWriteBytesToBuffer) for prvWriteBytesToBuffer
    stream_buffer.o(i.vStreamBufferDelete) refers to heap_4.o(i.vPortFree) for vPortFree
    stream_buffer.o(i.vStreamBufferDelete) refers to memseta.o(.text) for __aeabi_memclr4
    stream_buffer.o(i.xStreamBufferBytesAvailable) refers to stream_buffer.o(i.prvBytesInBuffer) for prvBytesInBuffer
    stream_buffer.o(i.xStreamBufferGenericCreate) refers to heap_4.o(i.pvPortMalloc) for pvPortMalloc
    stream_buffer.o(i.xStreamBufferGenericCreate) refers to stream_buffer.o(i.prvInitialiseNewStreamBuffer) for prvInitialiseNewStreamBuffer
    stream_buffer.o(i.xStreamBufferGenericCreateStatic) refers to stream_buffer.o(i.prvInitialiseNewStreamBuffer) for prvInitialiseNewStreamBuffer
    stream_buffer.o(i.xStreamBufferIsFull) refers to stream_buffer.o(i.xStreamBufferSpacesAvailable) for xStreamBufferSpacesAvailable
    stream_buffer.o(i.xStreamBufferNextMessageLengthBytes) refers to stream_buffer.o(i.prvBytesInBuffer) for prvBytesInBuffer
    stream_buffer.o(i.xStreamBufferNextMessageLengthBytes) refers to stream_buffer.o(i.prvReadBytesFromBuffer) for prvReadBytesFromBuffer
    stream_buffer.o(i.xStreamBufferReceive) refers to port.o(i.vPortEnterCritical) for vPortEnterCritical
    stream_buffer.o(i.xStreamBufferReceive) refers to stream_buffer.o(i.prvBytesInBuffer) for prvBytesInBuffer
    stream_buffer.o(i.xStreamBufferReceive) refers to tasks.o(i.xTaskNotifyStateClear) for xTaskNotifyStateClear
    stream_buffer.o(i.xStreamBufferReceive) refers to tasks.o(i.xTaskGetCurrentTaskHandle) for xTaskGetCurrentTaskHandle
    stream_buffer.o(i.xStreamBufferReceive) refers to port.o(i.vPortExitCritical) for vPortExitCritical
    stream_buffer.o(i.xStreamBufferReceive) refers to tasks.o(i.xTaskNotifyWait) for xTaskNotifyWait
    stream_buffer.o(i.xStreamBufferReceive) refers to stream_buffer.o(i.prvReadMessageFromBuffer) for prvReadMessageFromBuffer
    stream_buffer.o(i.xStreamBufferReceive) refers to tasks.o(i.vTaskSuspendAll) for vTaskSuspendAll
    stream_buffer.o(i.xStreamBufferReceive) refers to tasks.o(i.xTaskGenericNotify) for xTaskGenericNotify
    stream_buffer.o(i.xStreamBufferReceive) refers to tasks.o(i.xTaskResumeAll) for xTaskResumeAll
    stream_buffer.o(i.xStreamBufferReceiveCompletedFromISR) refers to tasks.o(i.xTaskGenericNotifyFromISR) for xTaskGenericNotifyFromISR
    stream_buffer.o(i.xStreamBufferReceiveFromISR) refers to stream_buffer.o(i.prvBytesInBuffer) for prvBytesInBuffer
    stream_buffer.o(i.xStreamBufferReceiveFromISR) refers to stream_buffer.o(i.prvReadMessageFromBuffer) for prvReadMessageFromBuffer
    stream_buffer.o(i.xStreamBufferReceiveFromISR) refers to tasks.o(i.xTaskGenericNotifyFromISR) for xTaskGenericNotifyFromISR
    stream_buffer.o(i.xStreamBufferReset) refers to port.o(i.vPortEnterCritical) for vPortEnterCritical
    stream_buffer.o(i.xStreamBufferReset) refers to stream_buffer.o(i.prvInitialiseNewStreamBuffer) for prvInitialiseNewStreamBuffer
    stream_buffer.o(i.xStreamBufferReset) refers to port.o(i.vPortExitCritical) for vPortExitCritical
    stream_buffer.o(i.xStreamBufferSend) refers to tasks.o(i.vTaskSetTimeOutState) for vTaskSetTimeOutState
    stream_buffer.o(i.xStreamBufferSend) refers to port.o(i.vPortEnterCritical) for vPortEnterCritical
    stream_buffer.o(i.xStreamBufferSend) refers to stream_buffer.o(i.xStreamBufferSpacesAvailable) for xStreamBufferSpacesAvailable
    stream_buffer.o(i.xStreamBufferSend) refers to tasks.o(i.xTaskNotifyStateClear) for xTaskNotifyStateClear
    stream_buffer.o(i.xStreamBufferSend) refers to tasks.o(i.xTaskGetCurrentTaskHandle) for xTaskGetCurrentTaskHandle
    stream_buffer.o(i.xStreamBufferSend) refers to port.o(i.vPortExitCritical) for vPortExitCritical
    stream_buffer.o(i.xStreamBufferSend) refers to tasks.o(i.xTaskNotifyWait) for xTaskNotifyWait
    stream_buffer.o(i.xStreamBufferSend) refers to tasks.o(i.xTaskCheckForTimeOut) for xTaskCheckForTimeOut
    stream_buffer.o(i.xStreamBufferSend) refers to stream_buffer.o(i.prvWriteMessageToBuffer) for prvWriteMessageToBuffer
    stream_buffer.o(i.xStreamBufferSend) refers to stream_buffer.o(i.prvBytesInBuffer) for prvBytesInBuffer
    stream_buffer.o(i.xStreamBufferSend) refers to tasks.o(i.vTaskSuspendAll) for vTaskSuspendAll
    stream_buffer.o(i.xStreamBufferSend) refers to tasks.o(i.xTaskGenericNotify) for xTaskGenericNotify
    stream_buffer.o(i.xStreamBufferSend) refers to tasks.o(i.xTaskResumeAll) for xTaskResumeAll
    stream_buffer.o(i.xStreamBufferSendCompletedFromISR) refers to tasks.o(i.xTaskGenericNotifyFromISR) for xTaskGenericNotifyFromISR
    stream_buffer.o(i.xStreamBufferSendFromISR) refers to stream_buffer.o(i.xStreamBufferSpacesAvailable) for xStreamBufferSpacesAvailable
    stream_buffer.o(i.xStreamBufferSendFromISR) refers to stream_buffer.o(i.prvWriteMessageToBuffer) for prvWriteMessageToBuffer
    stream_buffer.o(i.xStreamBufferSendFromISR) refers to stream_buffer.o(i.prvBytesInBuffer) for prvBytesInBuffer
    stream_buffer.o(i.xStreamBufferSendFromISR) refers to tasks.o(i.xTaskGenericNotifyFromISR) for xTaskGenericNotifyFromISR
    tasks.o(i.eTaskGetState) refers to port.o(i.vPortEnterCritical) for vPortEnterCritical
    tasks.o(i.eTaskGetState) refers to port.o(i.vPortExitCritical) for vPortExitCritical
    tasks.o(i.eTaskGetState) refers to tasks.o(.data) for pxCurrentTCB
    tasks.o(i.eTaskGetState) refers to tasks.o(.bss) for xSuspendedTaskList
    tasks.o(i.pcTaskGetName) refers to tasks.o(.data) for pxCurrentTCB
    tasks.o(i.prvAddCurrentTaskToDelayedList) refers to list.o(i.uxListRemove) for uxListRemove
    tasks.o(i.prvAddCurrentTaskToDelayedList) refers to list.o(i.vListInsertEnd) for vListInsertEnd
    tasks.o(i.prvAddCurrentTaskToDelayedList) refers to list.o(i.vListInsert) for vListInsert
    tasks.o(i.prvAddCurrentTaskToDelayedList) refers to tasks.o(.data) for xTickCount
    tasks.o(i.prvAddCurrentTaskToDelayedList) refers to tasks.o(.bss) for xSuspendedTaskList
    tasks.o(i.prvAddNewTaskToReadyList) refers to port.o(i.vPortEnterCritical) for vPortEnterCritical
    tasks.o(i.prvAddNewTaskToReadyList) refers to tasks.o(i.prvInitialiseTaskLists) for prvInitialiseTaskLists
    tasks.o(i.prvAddNewTaskToReadyList) refers to list.o(i.vListInsertEnd) for vListInsertEnd
    tasks.o(i.prvAddNewTaskToReadyList) refers to port.o(i.vPortExitCritical) for vPortExitCritical
    tasks.o(i.prvAddNewTaskToReadyList) refers to tasks.o(.data) for uxCurrentNumberOfTasks
    tasks.o(i.prvAddNewTaskToReadyList) refers to tasks.o(.bss) for pxReadyTasksLists
    tasks.o(i.prvCheckTasksWaitingTermination) refers to port.o(i.vPortEnterCritical) for vPortEnterCritical
    tasks.o(i.prvCheckTasksWaitingTermination) refers to list.o(i.uxListRemove) for uxListRemove
    tasks.o(i.prvCheckTasksWaitingTermination) refers to port.o(i.vPortExitCritical) for vPortExitCritical
    tasks.o(i.prvCheckTasksWaitingTermination) refers to tasks.o(i.prvDeleteTCB) for prvDeleteTCB
    tasks.o(i.prvCheckTasksWaitingTermination) refers to tasks.o(.bss) for xTasksWaitingTermination
    tasks.o(i.prvCheckTasksWaitingTermination) refers to tasks.o(.data) for uxCurrentNumberOfTasks
    tasks.o(i.prvDeleteTCB) refers to heap_4.o(i.vPortFree) for vPortFree
    tasks.o(i.prvIdleTask) refers to tasks.o(i.prvCheckTasksWaitingTermination) for prvCheckTasksWaitingTermination
    tasks.o(i.prvIdleTask) refers to tasks.o(.bss) for pxReadyTasksLists
    tasks.o(i.prvInitialiseNewTask) refers to memseta.o(.text) for __aeabi_memset
    tasks.o(i.prvInitialiseNewTask) refers to list.o(i.vListInitialiseItem) for vListInitialiseItem
    tasks.o(i.prvInitialiseNewTask) refers to port.o(i.pxPortInitialiseStack) for pxPortInitialiseStack
    tasks.o(i.prvInitialiseTaskLists) refers to list.o(i.vListInitialise) for vListInitialise
    tasks.o(i.prvInitialiseTaskLists) refers to tasks.o(.bss) for pxReadyTasksLists
    tasks.o(i.prvInitialiseTaskLists) refers to tasks.o(.data) for pxDelayedTaskList
    tasks.o(i.prvListTasksWithinSingleList) refers to tasks.o(i.vTaskGetInfo) for vTaskGetInfo
    tasks.o(i.prvResetNextTaskUnblockTime) refers to tasks.o(.data) for pxDelayedTaskList
    tasks.o(i.prvTaskIsTaskSuspended) refers to tasks.o(.bss) for xSuspendedTaskList
    tasks.o(i.pvTaskIncrementMutexHeldCount) refers to tasks.o(.data) for pxCurrentTCB
    tasks.o(i.ulTaskNotifyTake) refers to port.o(i.vPortEnterCritical) for vPortEnterCritical
    tasks.o(i.ulTaskNotifyTake) refers to tasks.o(i.prvAddCurrentTaskToDelayedList) for prvAddCurrentTaskToDelayedList
    tasks.o(i.ulTaskNotifyTake) refers to port.o(i.vPortExitCritical) for vPortExitCritical
    tasks.o(i.ulTaskNotifyTake) refers to tasks.o(.data) for pxCurrentTCB
    tasks.o(i.ulTaskNotifyValueClear) refers to port.o(i.vPortEnterCritical) for vPortEnterCritical
    tasks.o(i.ulTaskNotifyValueClear) refers to port.o(i.vPortExitCritical) for vPortExitCritical
    tasks.o(i.ulTaskNotifyValueClear) refers to tasks.o(.data) for pxCurrentTCB
    tasks.o(i.uxTaskGetNumberOfTasks) refers to tasks.o(.data) for uxCurrentNumberOfTasks
    tasks.o(i.uxTaskGetStackHighWaterMark) refers to tasks.o(i.prvTaskCheckFreeStackSpace) for prvTaskCheckFreeStackSpace
    tasks.o(i.uxTaskGetStackHighWaterMark) refers to tasks.o(.data) for pxCurrentTCB
    tasks.o(i.uxTaskGetSystemState) refers to tasks.o(i.vTaskSuspendAll) for vTaskSuspendAll
    tasks.o(i.uxTaskGetSystemState) refers to tasks.o(i.prvListTasksWithinSingleList) for prvListTasksWithinSingleList
    tasks.o(i.uxTaskGetSystemState) refers to tasks.o(i.xTaskResumeAll) for xTaskResumeAll
    tasks.o(i.uxTaskGetSystemState) refers to tasks.o(.data) for uxCurrentNumberOfTasks
    tasks.o(i.uxTaskGetSystemState) refers to tasks.o(.bss) for pxReadyTasksLists
    tasks.o(i.uxTaskPriorityGet) refers to port.o(i.vPortEnterCritical) for vPortEnterCritical
    tasks.o(i.uxTaskPriorityGet) refers to port.o(i.vPortExitCritical) for vPortExitCritical
    tasks.o(i.uxTaskPriorityGet) refers to tasks.o(.data) for pxCurrentTCB
    tasks.o(i.uxTaskPriorityGetFromISR) refers to port.o(i.vPortValidateInterruptPriority) for vPortValidateInterruptPriority
    tasks.o(i.uxTaskPriorityGetFromISR) refers to tasks.o(.data) for pxCurrentTCB
    tasks.o(i.uxTaskResetEventItemValue) refers to tasks.o(.data) for pxCurrentTCB
    tasks.o(i.vTaskDelay) refers to tasks.o(i.vTaskSuspendAll) for vTaskSuspendAll
    tasks.o(i.vTaskDelay) refers to tasks.o(i.prvAddCurrentTaskToDelayedList) for prvAddCurrentTaskToDelayedList
    tasks.o(i.vTaskDelay) refers to tasks.o(i.xTaskResumeAll) for xTaskResumeAll
    tasks.o(i.vTaskDelay) refers to tasks.o(.data) for uxSchedulerSuspended
    tasks.o(i.vTaskDelayUntil) refers to tasks.o(i.vTaskSuspendAll) for vTaskSuspendAll
    tasks.o(i.vTaskDelayUntil) refers to tasks.o(i.prvAddCurrentTaskToDelayedList) for prvAddCurrentTaskToDelayedList
    tasks.o(i.vTaskDelayUntil) refers to tasks.o(i.xTaskResumeAll) for xTaskResumeAll
    tasks.o(i.vTaskDelayUntil) refers to tasks.o(.data) for uxSchedulerSuspended
    tasks.o(i.vTaskDelete) refers to port.o(i.vPortEnterCritical) for vPortEnterCritical
    tasks.o(i.vTaskDelete) refers to list.o(i.uxListRemove) for uxListRemove
    tasks.o(i.vTaskDelete) refers to list.o(i.vListInsertEnd) for vListInsertEnd
    tasks.o(i.vTaskDelete) refers to tasks.o(i.prvDeleteTCB) for prvDeleteTCB
    tasks.o(i.vTaskDelete) refers to tasks.o(i.prvResetNextTaskUnblockTime) for prvResetNextTaskUnblockTime
    tasks.o(i.vTaskDelete) refers to port.o(i.vPortExitCritical) for vPortExitCritical
    tasks.o(i.vTaskDelete) refers to tasks.o(.data) for pxCurrentTCB
    tasks.o(i.vTaskDelete) refers to tasks.o(.bss) for xTasksWaitingTermination
    tasks.o(i.vTaskEndScheduler) refers to port.o(i.vPortEndScheduler) for vPortEndScheduler
    tasks.o(i.vTaskEndScheduler) refers to tasks.o(.data) for xSchedulerRunning
    tasks.o(i.vTaskGetInfo) refers to tasks.o(i.vTaskSuspendAll) for vTaskSuspendAll
    tasks.o(i.vTaskGetInfo) refers to tasks.o(i.xTaskResumeAll) for xTaskResumeAll
    tasks.o(i.vTaskGetInfo) refers to tasks.o(i.eTaskGetState) for eTaskGetState
    tasks.o(i.vTaskGetInfo) refers to tasks.o(i.prvTaskCheckFreeStackSpace) for prvTaskCheckFreeStackSpace
    tasks.o(i.vTaskGetInfo) refers to tasks.o(.data) for pxCurrentTCB
    tasks.o(i.vTaskInternalSetTimeOutState) refers to tasks.o(.data) for xNumOfOverflows
    tasks.o(i.vTaskMissedYield) refers to tasks.o(.data) for xYieldPending
    tasks.o(i.vTaskNotifyGiveFromISR) refers to port.o(i.vPortValidateInterruptPriority) for vPortValidateInterruptPriority
    tasks.o(i.vTaskNotifyGiveFromISR) refers to list.o(i.uxListRemove) for uxListRemove
    tasks.o(i.vTaskNotifyGiveFromISR) refers to list.o(i.vListInsertEnd) for vListInsertEnd
    tasks.o(i.vTaskNotifyGiveFromISR) refers to tasks.o(.data) for uxSchedulerSuspended
    tasks.o(i.vTaskNotifyGiveFromISR) refers to tasks.o(.bss) for pxReadyTasksLists
    tasks.o(i.vTaskPlaceOnEventList) refers to list.o(i.vListInsert) for vListInsert
    tasks.o(i.vTaskPlaceOnEventList) refers to tasks.o(i.prvAddCurrentTaskToDelayedList) for prvAddCurrentTaskToDelayedList
    tasks.o(i.vTaskPlaceOnEventList) refers to tasks.o(.data) for pxCurrentTCB
    tasks.o(i.vTaskPlaceOnEventListRestricted) refers to list.o(i.vListInsertEnd) for vListInsertEnd
    tasks.o(i.vTaskPlaceOnEventListRestricted) refers to tasks.o(i.prvAddCurrentTaskToDelayedList) for prvAddCurrentTaskToDelayedList
    tasks.o(i.vTaskPlaceOnEventListRestricted) refers to tasks.o(.data) for pxCurrentTCB
    tasks.o(i.vTaskPlaceOnUnorderedEventList) refers to list.o(i.vListInsertEnd) for vListInsertEnd
    tasks.o(i.vTaskPlaceOnUnorderedEventList) refers to tasks.o(i.prvAddCurrentTaskToDelayedList) for prvAddCurrentTaskToDelayedList
    tasks.o(i.vTaskPlaceOnUnorderedEventList) refers to tasks.o(.data) for uxSchedulerSuspended
    tasks.o(i.vTaskPriorityDisinheritAfterTimeout) refers to list.o(i.uxListRemove) for uxListRemove
    tasks.o(i.vTaskPriorityDisinheritAfterTimeout) refers to list.o(i.vListInsertEnd) for vListInsertEnd
    tasks.o(i.vTaskPriorityDisinheritAfterTimeout) refers to tasks.o(.data) for pxCurrentTCB
    tasks.o(i.vTaskPriorityDisinheritAfterTimeout) refers to tasks.o(.bss) for pxReadyTasksLists
    tasks.o(i.vTaskPrioritySet) refers to port.o(i.vPortEnterCritical) for vPortEnterCritical
    tasks.o(i.vTaskPrioritySet) refers to list.o(i.uxListRemove) for uxListRemove
    tasks.o(i.vTaskPrioritySet) refers to list.o(i.vListInsertEnd) for vListInsertEnd
    tasks.o(i.vTaskPrioritySet) refers to port.o(i.vPortExitCritical) for vPortExitCritical
    tasks.o(i.vTaskPrioritySet) refers to tasks.o(.data) for pxCurrentTCB
    tasks.o(i.vTaskPrioritySet) refers to tasks.o(.bss) for pxReadyTasksLists
    tasks.o(i.vTaskRemoveFromUnorderedEventList) refers to list.o(i.uxListRemove) for uxListRemove
    tasks.o(i.vTaskRemoveFromUnorderedEventList) refers to list.o(i.vListInsertEnd) for vListInsertEnd
    tasks.o(i.vTaskRemoveFromUnorderedEventList) refers to tasks.o(.data) for uxSchedulerSuspended
    tasks.o(i.vTaskRemoveFromUnorderedEventList) refers to tasks.o(.bss) for pxReadyTasksLists
    tasks.o(i.vTaskResume) refers to port.o(i.vPortEnterCritical) for vPortEnterCritical
    tasks.o(i.vTaskResume) refers to tasks.o(i.prvTaskIsTaskSuspended) for prvTaskIsTaskSuspended
    tasks.o(i.vTaskResume) refers to list.o(i.uxListRemove) for uxListRemove
    tasks.o(i.vTaskResume) refers to list.o(i.vListInsertEnd) for vListInsertEnd
    tasks.o(i.vTaskResume) refers to port.o(i.vPortExitCritical) for vPortExitCritical
    tasks.o(i.vTaskResume) refers to tasks.o(.data) for pxCurrentTCB
    tasks.o(i.vTaskResume) refers to tasks.o(.bss) for pxReadyTasksLists
    tasks.o(i.vTaskSetTimeOutState) refers to port.o(i.vPortEnterCritical) for vPortEnterCritical
    tasks.o(i.vTaskSetTimeOutState) refers to port.o(i.vPortExitCritical) for vPortExitCritical
    tasks.o(i.vTaskSetTimeOutState) refers to tasks.o(.data) for xNumOfOverflows
    tasks.o(i.vTaskStartScheduler) refers to cmsis_os2.o(i.vApplicationGetIdleTaskMemory) for vApplicationGetIdleTaskMemory
    tasks.o(i.vTaskStartScheduler) refers to tasks.o(i.xTaskCreateStatic) for xTaskCreateStatic
    tasks.o(i.vTaskStartScheduler) refers to timers.o(i.xTimerCreateTimerTask) for xTimerCreateTimerTask
    tasks.o(i.vTaskStartScheduler) refers to port.o(i.xPortStartScheduler) for xPortStartScheduler
    tasks.o(i.vTaskStartScheduler) refers to tasks.o(i.prvIdleTask) for prvIdleTask
    tasks.o(i.vTaskStartScheduler) refers to tasks.o(.data) for xIdleTaskHandle
    tasks.o(i.vTaskSuspend) refers to port.o(i.vPortEnterCritical) for vPortEnterCritical
    tasks.o(i.vTaskSuspend) refers to list.o(i.uxListRemove) for uxListRemove
    tasks.o(i.vTaskSuspend) refers to list.o(i.vListInsertEnd) for vListInsertEnd
    tasks.o(i.vTaskSuspend) refers to port.o(i.vPortExitCritical) for vPortExitCritical
    tasks.o(i.vTaskSuspend) refers to tasks.o(i.prvResetNextTaskUnblockTime) for prvResetNextTaskUnblockTime
    tasks.o(i.vTaskSuspend) refers to tasks.o(i.vTaskSwitchContext) for vTaskSwitchContext
    tasks.o(i.vTaskSuspend) refers to tasks.o(.data) for pxCurrentTCB
    tasks.o(i.vTaskSuspend) refers to tasks.o(.bss) for xSuspendedTaskList
    tasks.o(i.vTaskSuspendAll) refers to tasks.o(.data) for uxSchedulerSuspended
    tasks.o(i.vTaskSwitchContext) refers to tasks.o(.data) for uxSchedulerSuspended
    tasks.o(i.vTaskSwitchContext) refers to tasks.o(.bss) for pxReadyTasksLists
    tasks.o(i.xTaskCatchUpTicks) refers to tasks.o(i.vTaskSuspendAll) for vTaskSuspendAll
    tasks.o(i.xTaskCatchUpTicks) refers to tasks.o(i.xTaskResumeAll) for xTaskResumeAll
    tasks.o(i.xTaskCatchUpTicks) refers to tasks.o(.data) for uxSchedulerSuspended
    tasks.o(i.xTaskCheckForTimeOut) refers to port.o(i.vPortEnterCritical) for vPortEnterCritical
    tasks.o(i.xTaskCheckForTimeOut) refers to tasks.o(i.vTaskInternalSetTimeOutState) for vTaskInternalSetTimeOutState
    tasks.o(i.xTaskCheckForTimeOut) refers to port.o(i.vPortExitCritical) for vPortExitCritical
    tasks.o(i.xTaskCheckForTimeOut) refers to tasks.o(.data) for xTickCount
    tasks.o(i.xTaskCreate) refers to heap_4.o(i.pvPortMalloc) for pvPortMalloc
    tasks.o(i.xTaskCreate) refers to heap_4.o(i.vPortFree) for vPortFree
    tasks.o(i.xTaskCreate) refers to tasks.o(i.prvInitialiseNewTask) for prvInitialiseNewTask
    tasks.o(i.xTaskCreate) refers to tasks.o(i.prvAddNewTaskToReadyList) for prvAddNewTaskToReadyList
    tasks.o(i.xTaskCreateStatic) refers to tasks.o(i.prvInitialiseNewTask) for prvInitialiseNewTask
    tasks.o(i.xTaskCreateStatic) refers to tasks.o(i.prvAddNewTaskToReadyList) for prvAddNewTaskToReadyList
    tasks.o(i.xTaskGenericNotify) refers to port.o(i.vPortEnterCritical) for vPortEnterCritical
    tasks.o(i.xTaskGenericNotify) refers to list.o(i.uxListRemove) for uxListRemove
    tasks.o(i.xTaskGenericNotify) refers to list.o(i.vListInsertEnd) for vListInsertEnd
    tasks.o(i.xTaskGenericNotify) refers to port.o(i.vPortExitCritical) for vPortExitCritical
    tasks.o(i.xTaskGenericNotify) refers to tasks.o(.data) for uxTopReadyPriority
    tasks.o(i.xTaskGenericNotify) refers to tasks.o(.bss) for pxReadyTasksLists
    tasks.o(i.xTaskGenericNotifyFromISR) refers to port.o(i.vPortValidateInterruptPriority) for vPortValidateInterruptPriority
    tasks.o(i.xTaskGenericNotifyFromISR) refers to list.o(i.uxListRemove) for uxListRemove
    tasks.o(i.xTaskGenericNotifyFromISR) refers to list.o(i.vListInsertEnd) for vListInsertEnd
    tasks.o(i.xTaskGenericNotifyFromISR) refers to tasks.o(.data) for uxSchedulerSuspended
    tasks.o(i.xTaskGenericNotifyFromISR) refers to tasks.o(.bss) for pxReadyTasksLists
    tasks.o(i.xTaskGetCurrentTaskHandle) refers to tasks.o(.data) for pxCurrentTCB
    tasks.o(i.xTaskGetSchedulerState) refers to tasks.o(.data) for xSchedulerRunning
    tasks.o(i.xTaskGetTickCount) refers to tasks.o(.data) for xTickCount
    tasks.o(i.xTaskGetTickCountFromISR) refers to port.o(i.vPortValidateInterruptPriority) for vPortValidateInterruptPriority
    tasks.o(i.xTaskGetTickCountFromISR) refers to tasks.o(.data) for xTickCount
    tasks.o(i.xTaskIncrementTick) refers to tasks.o(i.prvResetNextTaskUnblockTime) for prvResetNextTaskUnblockTime
    tasks.o(i.xTaskIncrementTick) refers to list.o(i.uxListRemove) for uxListRemove
    tasks.o(i.xTaskIncrementTick) refers to list.o(i.vListInsertEnd) for vListInsertEnd
    tasks.o(i.xTaskIncrementTick) refers to tasks.o(.data) for uxSchedulerSuspended
    tasks.o(i.xTaskIncrementTick) refers to tasks.o(.bss) for pxReadyTasksLists
    tasks.o(i.xTaskNotifyStateClear) refers to port.o(i.vPortEnterCritical) for vPortEnterCritical
    tasks.o(i.xTaskNotifyStateClear) refers to port.o(i.vPortExitCritical) for vPortExitCritical
    tasks.o(i.xTaskNotifyStateClear) refers to tasks.o(.data) for pxCurrentTCB
    tasks.o(i.xTaskNotifyWait) refers to port.o(i.vPortEnterCritical) for vPortEnterCritical
    tasks.o(i.xTaskNotifyWait) refers to tasks.o(i.prvAddCurrentTaskToDelayedList) for prvAddCurrentTaskToDelayedList
    tasks.o(i.xTaskNotifyWait) refers to port.o(i.vPortExitCritical) for vPortExitCritical
    tasks.o(i.xTaskNotifyWait) refers to tasks.o(.data) for pxCurrentTCB
    tasks.o(i.xTaskPriorityDisinherit) refers to list.o(i.uxListRemove) for uxListRemove
    tasks.o(i.xTaskPriorityDisinherit) refers to list.o(i.vListInsertEnd) for vListInsertEnd
    tasks.o(i.xTaskPriorityDisinherit) refers to tasks.o(.data) for pxCurrentTCB
    tasks.o(i.xTaskPriorityDisinherit) refers to tasks.o(.bss) for pxReadyTasksLists
    tasks.o(i.xTaskPriorityInherit) refers to list.o(i.uxListRemove) for uxListRemove
    tasks.o(i.xTaskPriorityInherit) refers to list.o(i.vListInsertEnd) for vListInsertEnd
    tasks.o(i.xTaskPriorityInherit) refers to tasks.o(.data) for pxCurrentTCB
    tasks.o(i.xTaskPriorityInherit) refers to tasks.o(.bss) for pxReadyTasksLists
    tasks.o(i.xTaskRemoveFromEventList) refers to list.o(i.uxListRemove) for uxListRemove
    tasks.o(i.xTaskRemoveFromEventList) refers to list.o(i.vListInsertEnd) for vListInsertEnd
    tasks.o(i.xTaskRemoveFromEventList) refers to tasks.o(.data) for uxSchedulerSuspended
    tasks.o(i.xTaskRemoveFromEventList) refers to tasks.o(.bss) for pxReadyTasksLists
    tasks.o(i.xTaskResumeAll) refers to port.o(i.vPortEnterCritical) for vPortEnterCritical
    tasks.o(i.xTaskResumeAll) refers to list.o(i.uxListRemove) for uxListRemove
    tasks.o(i.xTaskResumeAll) refers to list.o(i.vListInsertEnd) for vListInsertEnd
    tasks.o(i.xTaskResumeAll) refers to tasks.o(i.prvResetNextTaskUnblockTime) for prvResetNextTaskUnblockTime
    tasks.o(i.xTaskResumeAll) refers to tasks.o(i.xTaskIncrementTick) for xTaskIncrementTick
    tasks.o(i.xTaskResumeAll) refers to port.o(i.vPortExitCritical) for vPortExitCritical
    tasks.o(i.xTaskResumeAll) refers to tasks.o(.data) for uxSchedulerSuspended
    tasks.o(i.xTaskResumeAll) refers to tasks.o(.bss) for xPendingReadyList
    tasks.o(i.xTaskResumeFromISR) refers to port.o(i.vPortValidateInterruptPriority) for vPortValidateInterruptPriority
    tasks.o(i.xTaskResumeFromISR) refers to tasks.o(i.prvTaskIsTaskSuspended) for prvTaskIsTaskSuspended
    tasks.o(i.xTaskResumeFromISR) refers to list.o(i.uxListRemove) for uxListRemove
    tasks.o(i.xTaskResumeFromISR) refers to list.o(i.vListInsertEnd) for vListInsertEnd
    tasks.o(i.xTaskResumeFromISR) refers to tasks.o(.data) for uxSchedulerSuspended
    tasks.o(i.xTaskResumeFromISR) refers to tasks.o(.bss) for pxReadyTasksLists
    timers.o(i.prvCheckForValidListAndQueue) refers to port.o(i.vPortEnterCritical) for vPortEnterCritical
    timers.o(i.prvCheckForValidListAndQueue) refers to list.o(i.vListInitialise) for vListInitialise
    timers.o(i.prvCheckForValidListAndQueue) refers to queue.o(i.xQueueGenericCreateStatic) for xQueueGenericCreateStatic
    timers.o(i.prvCheckForValidListAndQueue) refers to queue.o(i.vQueueAddToRegistry) for vQueueAddToRegistry
    timers.o(i.prvCheckForValidListAndQueue) refers to port.o(i.vPortExitCritical) for vPortExitCritical
    timers.o(i.prvCheckForValidListAndQueue) refers to timers.o(.data) for xTimerQueue
    timers.o(i.prvCheckForValidListAndQueue) refers to timers.o(.bss) for xActiveTimerList1
    timers.o(i.prvGetNextExpireTime) refers to timers.o(.data) for pxCurrentTimerList
    timers.o(i.prvInitialiseNewTimer) refers to timers.o(i.prvCheckForValidListAndQueue) for prvCheckForValidListAndQueue
    timers.o(i.prvInitialiseNewTimer) refers to list.o(i.vListInitialiseItem) for vListInitialiseItem
    timers.o(i.prvInsertTimerInActiveList) refers to list.o(i.vListInsert) for vListInsert
    timers.o(i.prvInsertTimerInActiveList) refers to timers.o(.data) for pxOverflowTimerList
    timers.o(i.prvProcessExpiredTimer) refers to list.o(i.uxListRemove) for uxListRemove
    timers.o(i.prvProcessExpiredTimer) refers to timers.o(i.prvInsertTimerInActiveList) for prvInsertTimerInActiveList
    timers.o(i.prvProcessExpiredTimer) refers to timers.o(i.xTimerGenericCommand) for xTimerGenericCommand
    timers.o(i.prvProcessExpiredTimer) refers to timers.o(.data) for pxCurrentTimerList
    timers.o(i.prvProcessReceivedCommands) refers to list.o(i.uxListRemove) for uxListRemove
    timers.o(i.prvProcessReceivedCommands) refers to timers.o(i.prvSampleTimeNow) for prvSampleTimeNow
    timers.o(i.prvProcessReceivedCommands) refers to timers.o(i.prvInsertTimerInActiveList) for prvInsertTimerInActiveList
    timers.o(i.prvProcessReceivedCommands) refers to timers.o(i.xTimerGenericCommand) for xTimerGenericCommand
    timers.o(i.prvProcessReceivedCommands) refers to heap_4.o(i.vPortFree) for vPortFree
    timers.o(i.prvProcessReceivedCommands) refers to queue.o(i.xQueueReceive) for xQueueReceive
    timers.o(i.prvProcessReceivedCommands) refers to timers.o(.data) for xTimerQueue
    timers.o(i.prvProcessTimerOrBlockTask) refers to tasks.o(i.vTaskSuspendAll) for vTaskSuspendAll
    timers.o(i.prvProcessTimerOrBlockTask) refers to timers.o(i.prvSampleTimeNow) for prvSampleTimeNow
    timers.o(i.prvProcessTimerOrBlockTask) refers to tasks.o(i.xTaskResumeAll) for xTaskResumeAll
    timers.o(i.prvProcessTimerOrBlockTask) refers to timers.o(i.prvProcessExpiredTimer) for prvProcessExpiredTimer
    timers.o(i.prvProcessTimerOrBlockTask) refers to queue.o(i.vQueueWaitForMessageRestricted) for vQueueWaitForMessageRestricted
    timers.o(i.prvProcessTimerOrBlockTask) refers to timers.o(.data) for pxOverflowTimerList
    timers.o(i.prvSampleTimeNow) refers to tasks.o(i.xTaskGetTickCount) for xTaskGetTickCount
    timers.o(i.prvSampleTimeNow) refers to timers.o(i.prvSwitchTimerLists) for prvSwitchTimerLists
    timers.o(i.prvSampleTimeNow) refers to timers.o(.data) for xLastTime
    timers.o(i.prvSwitchTimerLists) refers to list.o(i.uxListRemove) for uxListRemove
    timers.o(i.prvSwitchTimerLists) refers to list.o(i.vListInsert) for vListInsert
    timers.o(i.prvSwitchTimerLists) refers to timers.o(i.xTimerGenericCommand) for xTimerGenericCommand
    timers.o(i.prvSwitchTimerLists) refers to timers.o(.data) for pxCurrentTimerList
    timers.o(i.prvTimerTask) refers to timers.o(i.prvGetNextExpireTime) for prvGetNextExpireTime
    timers.o(i.prvTimerTask) refers to timers.o(i.prvProcessTimerOrBlockTask) for prvProcessTimerOrBlockTask
    timers.o(i.prvTimerTask) refers to timers.o(i.prvProcessReceivedCommands) for prvProcessReceivedCommands
    timers.o(i.pvTimerGetTimerID) refers to port.o(i.vPortEnterCritical) for vPortEnterCritical
    timers.o(i.pvTimerGetTimerID) refers to port.o(i.vPortExitCritical) for vPortExitCritical
    timers.o(i.uxTimerGetReloadMode) refers to port.o(i.vPortEnterCritical) for vPortEnterCritical
    timers.o(i.uxTimerGetReloadMode) refers to port.o(i.vPortExitCritical) for vPortExitCritical
    timers.o(i.vTimerSetReloadMode) refers to port.o(i.vPortEnterCritical) for vPortEnterCritical
    timers.o(i.vTimerSetReloadMode) refers to port.o(i.vPortExitCritical) for vPortExitCritical
    timers.o(i.vTimerSetTimerID) refers to port.o(i.vPortEnterCritical) for vPortEnterCritical
    timers.o(i.vTimerSetTimerID) refers to port.o(i.vPortExitCritical) for vPortExitCritical
    timers.o(i.xTimerCreate) refers to heap_4.o(i.pvPortMalloc) for pvPortMalloc
    timers.o(i.xTimerCreate) refers to timers.o(i.prvInitialiseNewTimer) for prvInitialiseNewTimer
    timers.o(i.xTimerCreateStatic) refers to timers.o(i.prvInitialiseNewTimer) for prvInitialiseNewTimer
    timers.o(i.xTimerCreateTimerTask) refers to timers.o(i.prvCheckForValidListAndQueue) for prvCheckForValidListAndQueue
    timers.o(i.xTimerCreateTimerTask) refers to cmsis_os2.o(i.vApplicationGetTimerTaskMemory) for vApplicationGetTimerTaskMemory
    timers.o(i.xTimerCreateTimerTask) refers to tasks.o(i.xTaskCreateStatic) for xTaskCreateStatic
    timers.o(i.xTimerCreateTimerTask) refers to timers.o(.data) for xTimerQueue
    timers.o(i.xTimerCreateTimerTask) refers to timers.o(i.prvTimerTask) for prvTimerTask
    timers.o(i.xTimerGenericCommand) refers to tasks.o(i.xTaskGetSchedulerState) for xTaskGetSchedulerState
    timers.o(i.xTimerGenericCommand) refers to queue.o(i.xQueueGenericSend) for xQueueGenericSend
    timers.o(i.xTimerGenericCommand) refers to queue.o(i.xQueueGenericSendFromISR) for xQueueGenericSendFromISR
    timers.o(i.xTimerGenericCommand) refers to timers.o(.data) for xTimerQueue
    timers.o(i.xTimerGetTimerDaemonTaskHandle) refers to timers.o(.data) for xTimerTaskHandle
    timers.o(i.xTimerIsTimerActive) refers to port.o(i.vPortEnterCritical) for vPortEnterCritical
    timers.o(i.xTimerIsTimerActive) refers to port.o(i.vPortExitCritical) for vPortExitCritical
    timers.o(i.xTimerPendFunctionCall) refers to queue.o(i.xQueueGenericSend) for xQueueGenericSend
    timers.o(i.xTimerPendFunctionCall) refers to timers.o(.data) for xTimerQueue
    timers.o(i.xTimerPendFunctionCallFromISR) refers to queue.o(i.xQueueGenericSendFromISR) for xQueueGenericSendFromISR
    timers.o(i.xTimerPendFunctionCallFromISR) refers to timers.o(.data) for xTimerQueue
    cmsis_os2.o(i.TimerCallback) refers to timers.o(i.pvTimerGetTimerID) for pvTimerGetTimerID
    cmsis_os2.o(i.osDelay) refers to cmsis_os2.o(i.__get_IPSR) for __get_IPSR
    cmsis_os2.o(i.osDelay) refers to tasks.o(i.vTaskDelay) for vTaskDelay
    cmsis_os2.o(i.osDelayUntil) refers to cmsis_os2.o(i.__get_IPSR) for __get_IPSR
    cmsis_os2.o(i.osDelayUntil) refers to tasks.o(i.xTaskGetTickCount) for xTaskGetTickCount
    cmsis_os2.o(i.osDelayUntil) refers to tasks.o(i.vTaskDelayUntil) for vTaskDelayUntil
    cmsis_os2.o(i.osEventFlagsClear) refers to cmsis_os2.o(i.__get_IPSR) for __get_IPSR
    cmsis_os2.o(i.osEventFlagsClear) refers to event_groups.o(i.xEventGroupGetBitsFromISR) for xEventGroupGetBitsFromISR
    cmsis_os2.o(i.osEventFlagsClear) refers to event_groups.o(i.xEventGroupClearBitsFromISR) for xEventGroupClearBitsFromISR
    cmsis_os2.o(i.osEventFlagsClear) refers to event_groups.o(i.xEventGroupClearBits) for xEventGroupClearBits
    cmsis_os2.o(i.osEventFlagsDelete) refers to cmsis_os2.o(i.__get_IPSR) for __get_IPSR
    cmsis_os2.o(i.osEventFlagsDelete) refers to event_groups.o(i.vEventGroupDelete) for vEventGroupDelete
    cmsis_os2.o(i.osEventFlagsGet) refers to cmsis_os2.o(i.__get_IPSR) for __get_IPSR
    cmsis_os2.o(i.osEventFlagsGet) refers to event_groups.o(i.xEventGroupGetBitsFromISR) for xEventGroupGetBitsFromISR
    cmsis_os2.o(i.osEventFlagsGet) refers to event_groups.o(i.xEventGroupClearBits) for xEventGroupClearBits
    cmsis_os2.o(i.osEventFlagsNew) refers to cmsis_os2.o(i.__get_IPSR) for __get_IPSR
    cmsis_os2.o(i.osEventFlagsNew) refers to event_groups.o(i.xEventGroupCreateStatic) for xEventGroupCreateStatic
    cmsis_os2.o(i.osEventFlagsNew) refers to event_groups.o(i.xEventGroupCreate) for xEventGroupCreate
    cmsis_os2.o(i.osEventFlagsSet) refers to cmsis_os2.o(i.__get_IPSR) for __get_IPSR
    cmsis_os2.o(i.osEventFlagsSet) refers to event_groups.o(i.xEventGroupSetBitsFromISR) for xEventGroupSetBitsFromISR
    cmsis_os2.o(i.osEventFlagsSet) refers to event_groups.o(i.xEventGroupSetBits) for xEventGroupSetBits
    cmsis_os2.o(i.osEventFlagsWait) refers to cmsis_os2.o(i.__get_IPSR) for __get_IPSR
    cmsis_os2.o(i.osEventFlagsWait) refers to event_groups.o(i.xEventGroupWaitBits) for xEventGroupWaitBits
    cmsis_os2.o(i.osKernelGetInfo) refers to memcpya.o(.text) for __aeabi_memcpy
    cmsis_os2.o(i.osKernelGetState) refers to tasks.o(i.xTaskGetSchedulerState) for xTaskGetSchedulerState
    cmsis_os2.o(i.osKernelGetState) refers to cmsis_os2.o(.data) for KernelState
    cmsis_os2.o(i.osKernelGetSysTimerCount) refers to tasks.o(i.xTaskGetTickCount) for xTaskGetTickCount
    cmsis_os2.o(i.osKernelGetSysTimerCount) refers to cmsis_os2.o(i.OS_Tick_GetCount) for OS_Tick_GetCount
    cmsis_os2.o(i.osKernelGetSysTimerCount) refers to cmsis_os2.o(i.OS_Tick_GetOverflow) for OS_Tick_GetOverflow
    cmsis_os2.o(i.osKernelGetSysTimerCount) refers to cmsis_os2.o(i.OS_Tick_GetInterval) for OS_Tick_GetInterval
    cmsis_os2.o(i.osKernelGetSysTimerFreq) refers to system_stm32f1xx.o(.data) for SystemCoreClock
    cmsis_os2.o(i.osKernelGetTickCount) refers to cmsis_os2.o(i.__get_IPSR) for __get_IPSR
    cmsis_os2.o(i.osKernelGetTickCount) refers to tasks.o(i.xTaskGetTickCountFromISR) for xTaskGetTickCountFromISR
    cmsis_os2.o(i.osKernelGetTickCount) refers to tasks.o(i.xTaskGetTickCount) for xTaskGetTickCount
    cmsis_os2.o(i.osKernelInitialize) refers to cmsis_os2.o(i.__get_IPSR) for __get_IPSR
    cmsis_os2.o(i.osKernelInitialize) refers to cmsis_os2.o(.data) for KernelState
    cmsis_os2.o(i.osKernelLock) refers to cmsis_os2.o(i.__get_IPSR) for __get_IPSR
    cmsis_os2.o(i.osKernelLock) refers to tasks.o(i.xTaskGetSchedulerState) for xTaskGetSchedulerState
    cmsis_os2.o(i.osKernelLock) refers to tasks.o(i.vTaskSuspendAll) for vTaskSuspendAll
    cmsis_os2.o(i.osKernelRestoreLock) refers to cmsis_os2.o(i.__get_IPSR) for __get_IPSR
    cmsis_os2.o(i.osKernelRestoreLock) refers to tasks.o(i.xTaskGetSchedulerState) for xTaskGetSchedulerState
    cmsis_os2.o(i.osKernelRestoreLock) refers to tasks.o(i.vTaskSuspendAll) for vTaskSuspendAll
    cmsis_os2.o(i.osKernelRestoreLock) refers to tasks.o(i.xTaskResumeAll) for xTaskResumeAll
    cmsis_os2.o(i.osKernelStart) refers to cmsis_os2.o(i.__get_IPSR) for __get_IPSR
    cmsis_os2.o(i.osKernelStart) refers to tasks.o(i.vTaskStartScheduler) for vTaskStartScheduler
    cmsis_os2.o(i.osKernelStart) refers to cmsis_os2.o(.data) for KernelState
    cmsis_os2.o(i.osKernelUnlock) refers to cmsis_os2.o(i.__get_IPSR) for __get_IPSR
    cmsis_os2.o(i.osKernelUnlock) refers to tasks.o(i.xTaskGetSchedulerState) for xTaskGetSchedulerState
    cmsis_os2.o(i.osKernelUnlock) refers to tasks.o(i.xTaskResumeAll) for xTaskResumeAll
    cmsis_os2.o(i.osMemoryPoolAlloc) refers to cmsis_os2.o(i.__get_IPSR) for __get_IPSR
    cmsis_os2.o(i.osMemoryPoolAlloc) refers to queue.o(i.xQueueReceiveFromISR) for xQueueReceiveFromISR
    cmsis_os2.o(i.osMemoryPoolAlloc) refers to cmsis_os2.o(i.AllocBlock) for AllocBlock
    cmsis_os2.o(i.osMemoryPoolAlloc) refers to cmsis_os2.o(i.CreateBlock) for CreateBlock
    cmsis_os2.o(i.osMemoryPoolAlloc) refers to queue.o(i.xQueueSemaphoreTake) for xQueueSemaphoreTake
    cmsis_os2.o(i.osMemoryPoolAlloc) refers to port.o(i.vPortEnterCritical) for vPortEnterCritical
    cmsis_os2.o(i.osMemoryPoolAlloc) refers to port.o(i.vPortExitCritical) for vPortExitCritical
    cmsis_os2.o(i.osMemoryPoolDelete) refers to cmsis_os2.o(i.__get_IPSR) for __get_IPSR
    cmsis_os2.o(i.osMemoryPoolDelete) refers to port.o(i.vPortEnterCritical) for vPortEnterCritical
    cmsis_os2.o(i.osMemoryPoolDelete) refers to queue.o(i.xQueueGenericSend) for xQueueGenericSend
    cmsis_os2.o(i.osMemoryPoolDelete) refers to heap_4.o(i.vPortFree) for vPortFree
    cmsis_os2.o(i.osMemoryPoolDelete) refers to port.o(i.vPortExitCritical) for vPortExitCritical
    cmsis_os2.o(i.osMemoryPoolFree) refers to cmsis_os2.o(i.__get_IPSR) for __get_IPSR
    cmsis_os2.o(i.osMemoryPoolFree) refers to queue.o(i.uxQueueMessagesWaitingFromISR) for uxQueueMessagesWaitingFromISR
    cmsis_os2.o(i.osMemoryPoolFree) refers to cmsis_os2.o(i.FreeBlock) for FreeBlock
    cmsis_os2.o(i.osMemoryPoolFree) refers to queue.o(i.xQueueGiveFromISR) for xQueueGiveFromISR
    cmsis_os2.o(i.osMemoryPoolFree) refers to queue.o(i.uxQueueMessagesWaiting) for uxQueueMessagesWaiting
    cmsis_os2.o(i.osMemoryPoolFree) refers to port.o(i.vPortEnterCritical) for vPortEnterCritical
    cmsis_os2.o(i.osMemoryPoolFree) refers to port.o(i.vPortExitCritical) for vPortExitCritical
    cmsis_os2.o(i.osMemoryPoolFree) refers to queue.o(i.xQueueGenericSend) for xQueueGenericSend
    cmsis_os2.o(i.osMemoryPoolGetCount) refers to cmsis_os2.o(i.__get_IPSR) for __get_IPSR
    cmsis_os2.o(i.osMemoryPoolGetCount) refers to queue.o(i.uxQueueMessagesWaitingFromISR) for uxQueueMessagesWaitingFromISR
    cmsis_os2.o(i.osMemoryPoolGetCount) refers to queue.o(i.uxQueueMessagesWaiting) for uxQueueMessagesWaiting
    cmsis_os2.o(i.osMemoryPoolGetName) refers to cmsis_os2.o(i.__get_IPSR) for __get_IPSR
    cmsis_os2.o(i.osMemoryPoolGetSpace) refers to cmsis_os2.o(i.__get_IPSR) for __get_IPSR
    cmsis_os2.o(i.osMemoryPoolGetSpace) refers to queue.o(i.uxQueueMessagesWaitingFromISR) for uxQueueMessagesWaitingFromISR
    cmsis_os2.o(i.osMemoryPoolGetSpace) refers to queue.o(i.uxQueueMessagesWaiting) for uxQueueMessagesWaiting
    cmsis_os2.o(i.osMemoryPoolNew) refers to cmsis_os2.o(i.__get_IPSR) for __get_IPSR
    cmsis_os2.o(i.osMemoryPoolNew) refers to heap_4.o(i.pvPortMalloc) for pvPortMalloc
    cmsis_os2.o(i.osMemoryPoolNew) refers to queue.o(i.xQueueCreateCountingSemaphoreStatic) for xQueueCreateCountingSemaphoreStatic
    cmsis_os2.o(i.osMemoryPoolNew) refers to heap_4.o(i.vPortFree) for vPortFree
    cmsis_os2.o(i.osMessageQueueDelete) refers to cmsis_os2.o(i.__get_IPSR) for __get_IPSR
    cmsis_os2.o(i.osMessageQueueDelete) refers to queue.o(i.vQueueUnregisterQueue) for vQueueUnregisterQueue
    cmsis_os2.o(i.osMessageQueueDelete) refers to queue.o(i.vQueueDelete) for vQueueDelete
    cmsis_os2.o(i.osMessageQueueGet) refers to cmsis_os2.o(i.__get_IPSR) for __get_IPSR
    cmsis_os2.o(i.osMessageQueueGet) refers to queue.o(i.xQueueReceiveFromISR) for xQueueReceiveFromISR
    cmsis_os2.o(i.osMessageQueueGet) refers to queue.o(i.xQueueReceive) for xQueueReceive
    cmsis_os2.o(i.osMessageQueueGetCount) refers to cmsis_os2.o(i.__get_IPSR) for __get_IPSR
    cmsis_os2.o(i.osMessageQueueGetCount) refers to queue.o(i.uxQueueMessagesWaitingFromISR) for uxQueueMessagesWaitingFromISR
    cmsis_os2.o(i.osMessageQueueGetCount) refers to queue.o(i.uxQueueMessagesWaiting) for uxQueueMessagesWaiting
    cmsis_os2.o(i.osMessageQueueGetSpace) refers to cmsis_os2.o(i.__get_IPSR) for __get_IPSR
    cmsis_os2.o(i.osMessageQueueGetSpace) refers to queue.o(i.uxQueueSpacesAvailable) for uxQueueSpacesAvailable
    cmsis_os2.o(i.osMessageQueueNew) refers to cmsis_os2.o(i.__get_IPSR) for __get_IPSR
    cmsis_os2.o(i.osMessageQueueNew) refers to queue.o(i.xQueueGenericCreateStatic) for xQueueGenericCreateStatic
    cmsis_os2.o(i.osMessageQueueNew) refers to queue.o(i.xQueueGenericCreate) for xQueueGenericCreate
    cmsis_os2.o(i.osMessageQueueNew) refers to queue.o(i.vQueueAddToRegistry) for vQueueAddToRegistry
    cmsis_os2.o(i.osMessageQueuePut) refers to cmsis_os2.o(i.__get_IPSR) for __get_IPSR
    cmsis_os2.o(i.osMessageQueuePut) refers to queue.o(i.xQueueGenericSendFromISR) for xQueueGenericSendFromISR
    cmsis_os2.o(i.osMessageQueuePut) refers to queue.o(i.xQueueGenericSend) for xQueueGenericSend
    cmsis_os2.o(i.osMessageQueueReset) refers to cmsis_os2.o(i.__get_IPSR) for __get_IPSR
    cmsis_os2.o(i.osMessageQueueReset) refers to queue.o(i.xQueueGenericReset) for xQueueGenericReset
    cmsis_os2.o(i.osMutexAcquire) refers to cmsis_os2.o(i.__get_IPSR) for __get_IPSR
    cmsis_os2.o(i.osMutexAcquire) refers to queue.o(i.xQueueTakeMutexRecursive) for xQueueTakeMutexRecursive
    cmsis_os2.o(i.osMutexAcquire) refers to queue.o(i.xQueueSemaphoreTake) for xQueueSemaphoreTake
    cmsis_os2.o(i.osMutexDelete) refers to cmsis_os2.o(i.__get_IPSR) for __get_IPSR
    cmsis_os2.o(i.osMutexDelete) refers to queue.o(i.vQueueUnregisterQueue) for vQueueUnregisterQueue
    cmsis_os2.o(i.osMutexDelete) refers to queue.o(i.vQueueDelete) for vQueueDelete
    cmsis_os2.o(i.osMutexGetOwner) refers to cmsis_os2.o(i.__get_IPSR) for __get_IPSR
    cmsis_os2.o(i.osMutexGetOwner) refers to queue.o(i.xQueueGetMutexHolder) for xQueueGetMutexHolder
    cmsis_os2.o(i.osMutexNew) refers to cmsis_os2.o(i.__get_IPSR) for __get_IPSR
    cmsis_os2.o(i.osMutexNew) refers to queue.o(i.xQueueCreateMutexStatic) for xQueueCreateMutexStatic
    cmsis_os2.o(i.osMutexNew) refers to queue.o(i.xQueueCreateMutex) for xQueueCreateMutex
    cmsis_os2.o(i.osMutexNew) refers to queue.o(i.vQueueAddToRegistry) for vQueueAddToRegistry
    cmsis_os2.o(i.osMutexRelease) refers to cmsis_os2.o(i.__get_IPSR) for __get_IPSR
    cmsis_os2.o(i.osMutexRelease) refers to queue.o(i.xQueueGiveMutexRecursive) for xQueueGiveMutexRecursive
    cmsis_os2.o(i.osMutexRelease) refers to queue.o(i.xQueueGenericSend) for xQueueGenericSend
    cmsis_os2.o(i.osSemaphoreAcquire) refers to cmsis_os2.o(i.__get_IPSR) for __get_IPSR
    cmsis_os2.o(i.osSemaphoreAcquire) refers to queue.o(i.xQueueReceiveFromISR) for xQueueReceiveFromISR
    cmsis_os2.o(i.osSemaphoreAcquire) refers to queue.o(i.xQueueSemaphoreTake) for xQueueSemaphoreTake
    cmsis_os2.o(i.osSemaphoreDelete) refers to cmsis_os2.o(i.__get_IPSR) for __get_IPSR
    cmsis_os2.o(i.osSemaphoreDelete) refers to queue.o(i.vQueueUnregisterQueue) for vQueueUnregisterQueue
    cmsis_os2.o(i.osSemaphoreDelete) refers to queue.o(i.vQueueDelete) for vQueueDelete
    cmsis_os2.o(i.osSemaphoreGetCount) refers to cmsis_os2.o(i.__get_IPSR) for __get_IPSR
    cmsis_os2.o(i.osSemaphoreGetCount) refers to queue.o(i.uxQueueMessagesWaitingFromISR) for uxQueueMessagesWaitingFromISR
    cmsis_os2.o(i.osSemaphoreGetCount) refers to queue.o(i.uxQueueMessagesWaiting) for uxQueueMessagesWaiting
    cmsis_os2.o(i.osSemaphoreNew) refers to cmsis_os2.o(i.__get_IPSR) for __get_IPSR
    cmsis_os2.o(i.osSemaphoreNew) refers to queue.o(i.xQueueGenericCreateStatic) for xQueueGenericCreateStatic
    cmsis_os2.o(i.osSemaphoreNew) refers to queue.o(i.xQueueGenericCreate) for xQueueGenericCreate
    cmsis_os2.o(i.osSemaphoreNew) refers to queue.o(i.xQueueGenericSend) for xQueueGenericSend
    cmsis_os2.o(i.osSemaphoreNew) refers to queue.o(i.vQueueDelete) for vQueueDelete
    cmsis_os2.o(i.osSemaphoreNew) refers to queue.o(i.xQueueCreateCountingSemaphoreStatic) for xQueueCreateCountingSemaphoreStatic
    cmsis_os2.o(i.osSemaphoreNew) refers to queue.o(i.xQueueCreateCountingSemaphore) for xQueueCreateCountingSemaphore
    cmsis_os2.o(i.osSemaphoreNew) refers to queue.o(i.vQueueAddToRegistry) for vQueueAddToRegistry
    cmsis_os2.o(i.osSemaphoreRelease) refers to cmsis_os2.o(i.__get_IPSR) for __get_IPSR
    cmsis_os2.o(i.osSemaphoreRelease) refers to queue.o(i.xQueueGiveFromISR) for xQueueGiveFromISR
    cmsis_os2.o(i.osSemaphoreRelease) refers to queue.o(i.xQueueGenericSend) for xQueueGenericSend
    cmsis_os2.o(i.osThreadEnumerate) refers to cmsis_os2.o(i.__get_IPSR) for __get_IPSR
    cmsis_os2.o(i.osThreadEnumerate) refers to tasks.o(i.vTaskSuspendAll) for vTaskSuspendAll
    cmsis_os2.o(i.osThreadEnumerate) refers to tasks.o(i.uxTaskGetNumberOfTasks) for uxTaskGetNumberOfTasks
    cmsis_os2.o(i.osThreadEnumerate) refers to heap_4.o(i.pvPortMalloc) for pvPortMalloc
    cmsis_os2.o(i.osThreadEnumerate) refers to tasks.o(i.uxTaskGetSystemState) for uxTaskGetSystemState
    cmsis_os2.o(i.osThreadEnumerate) refers to tasks.o(i.xTaskResumeAll) for xTaskResumeAll
    cmsis_os2.o(i.osThreadEnumerate) refers to heap_4.o(i.vPortFree) for vPortFree
    cmsis_os2.o(i.osThreadExit) refers to tasks.o(i.vTaskDelete) for vTaskDelete
    cmsis_os2.o(i.osThreadFlagsClear) refers to cmsis_os2.o(i.__get_IPSR) for __get_IPSR
    cmsis_os2.o(i.osThreadFlagsClear) refers to tasks.o(i.xTaskGetCurrentTaskHandle) for xTaskGetCurrentTaskHandle
    cmsis_os2.o(i.osThreadFlagsClear) refers to tasks.o(i.xTaskGenericNotify) for xTaskGenericNotify
    cmsis_os2.o(i.osThreadFlagsGet) refers to cmsis_os2.o(i.__get_IPSR) for __get_IPSR
    cmsis_os2.o(i.osThreadFlagsGet) refers to tasks.o(i.xTaskGetCurrentTaskHandle) for xTaskGetCurrentTaskHandle
    cmsis_os2.o(i.osThreadFlagsGet) refers to tasks.o(i.xTaskGenericNotify) for xTaskGenericNotify
    cmsis_os2.o(i.osThreadFlagsSet) refers to cmsis_os2.o(i.__get_IPSR) for __get_IPSR
    cmsis_os2.o(i.osThreadFlagsSet) refers to tasks.o(i.xTaskGenericNotifyFromISR) for xTaskGenericNotifyFromISR
    cmsis_os2.o(i.osThreadFlagsSet) refers to tasks.o(i.xTaskGenericNotify) for xTaskGenericNotify
    cmsis_os2.o(i.osThreadFlagsWait) refers to cmsis_os2.o(i.__get_IPSR) for __get_IPSR
    cmsis_os2.o(i.osThreadFlagsWait) refers to tasks.o(i.xTaskGetTickCount) for xTaskGetTickCount
    cmsis_os2.o(i.osThreadFlagsWait) refers to tasks.o(i.xTaskNotifyWait) for xTaskNotifyWait
    cmsis_os2.o(i.osThreadGetCount) refers to cmsis_os2.o(i.__get_IPSR) for __get_IPSR
    cmsis_os2.o(i.osThreadGetCount) refers to tasks.o(i.uxTaskGetNumberOfTasks) for uxTaskGetNumberOfTasks
    cmsis_os2.o(i.osThreadGetId) refers to tasks.o(i.xTaskGetCurrentTaskHandle) for xTaskGetCurrentTaskHandle
    cmsis_os2.o(i.osThreadGetName) refers to cmsis_os2.o(i.__get_IPSR) for __get_IPSR
    cmsis_os2.o(i.osThreadGetName) refers to tasks.o(i.pcTaskGetName) for pcTaskGetName
    cmsis_os2.o(i.osThreadGetPriority) refers to cmsis_os2.o(i.__get_IPSR) for __get_IPSR
    cmsis_os2.o(i.osThreadGetPriority) refers to tasks.o(i.uxTaskPriorityGet) for uxTaskPriorityGet
    cmsis_os2.o(i.osThreadGetStackSpace) refers to cmsis_os2.o(i.__get_IPSR) for __get_IPSR
    cmsis_os2.o(i.osThreadGetStackSpace) refers to tasks.o(i.uxTaskGetStackHighWaterMark) for uxTaskGetStackHighWaterMark
    cmsis_os2.o(i.osThreadGetState) refers to cmsis_os2.o(i.__get_IPSR) for __get_IPSR
    cmsis_os2.o(i.osThreadGetState) refers to tasks.o(i.eTaskGetState) for eTaskGetState
    cmsis_os2.o(i.osThreadNew) refers to cmsis_os2.o(i.__get_IPSR) for __get_IPSR
    cmsis_os2.o(i.osThreadNew) refers to tasks.o(i.xTaskCreateStatic) for xTaskCreateStatic
    cmsis_os2.o(i.osThreadNew) refers to tasks.o(i.xTaskCreate) for xTaskCreate
    cmsis_os2.o(i.osThreadResume) refers to cmsis_os2.o(i.__get_IPSR) for __get_IPSR
    cmsis_os2.o(i.osThreadResume) refers to tasks.o(i.vTaskResume) for vTaskResume
    cmsis_os2.o(i.osThreadSetPriority) refers to cmsis_os2.o(i.__get_IPSR) for __get_IPSR
    cmsis_os2.o(i.osThreadSetPriority) refers to tasks.o(i.vTaskPrioritySet) for vTaskPrioritySet
    cmsis_os2.o(i.osThreadSuspend) refers to cmsis_os2.o(i.__get_IPSR) for __get_IPSR
    cmsis_os2.o(i.osThreadSuspend) refers to tasks.o(i.vTaskSuspend) for vTaskSuspend
    cmsis_os2.o(i.osThreadTerminate) refers to cmsis_os2.o(i.__get_IPSR) for __get_IPSR
    cmsis_os2.o(i.osThreadTerminate) refers to tasks.o(i.eTaskGetState) for eTaskGetState
    cmsis_os2.o(i.osThreadTerminate) refers to tasks.o(i.vTaskDelete) for vTaskDelete
    cmsis_os2.o(i.osThreadYield) refers to cmsis_os2.o(i.__get_IPSR) for __get_IPSR
    cmsis_os2.o(i.osTimerDelete) refers to cmsis_os2.o(i.__get_IPSR) for __get_IPSR
    cmsis_os2.o(i.osTimerDelete) refers to timers.o(i.pvTimerGetTimerID) for pvTimerGetTimerID
    cmsis_os2.o(i.osTimerDelete) refers to timers.o(i.xTimerGenericCommand) for xTimerGenericCommand
    cmsis_os2.o(i.osTimerDelete) refers to heap_4.o(i.vPortFree) for vPortFree
    cmsis_os2.o(i.osTimerGetName) refers to cmsis_os2.o(i.__get_IPSR) for __get_IPSR
    cmsis_os2.o(i.osTimerGetName) refers to timers.o(i.pcTimerGetName) for pcTimerGetName
    cmsis_os2.o(i.osTimerIsRunning) refers to cmsis_os2.o(i.__get_IPSR) for __get_IPSR
    cmsis_os2.o(i.osTimerIsRunning) refers to timers.o(i.xTimerIsTimerActive) for xTimerIsTimerActive
    cmsis_os2.o(i.osTimerNew) refers to cmsis_os2.o(i.__get_IPSR) for __get_IPSR
    cmsis_os2.o(i.osTimerNew) refers to heap_4.o(i.pvPortMalloc) for pvPortMalloc
    cmsis_os2.o(i.osTimerNew) refers to timers.o(i.xTimerCreateStatic) for xTimerCreateStatic
    cmsis_os2.o(i.osTimerNew) refers to timers.o(i.xTimerCreate) for xTimerCreate
    cmsis_os2.o(i.osTimerNew) refers to heap_4.o(i.vPortFree) for vPortFree
    cmsis_os2.o(i.osTimerNew) refers to cmsis_os2.o(i.TimerCallback) for TimerCallback
    cmsis_os2.o(i.osTimerStart) refers to cmsis_os2.o(i.__get_IPSR) for __get_IPSR
    cmsis_os2.o(i.osTimerStart) refers to timers.o(i.xTimerGenericCommand) for xTimerGenericCommand
    cmsis_os2.o(i.osTimerStop) refers to cmsis_os2.o(i.__get_IPSR) for __get_IPSR
    cmsis_os2.o(i.osTimerStop) refers to timers.o(i.xTimerIsTimerActive) for xTimerIsTimerActive
    cmsis_os2.o(i.osTimerStop) refers to timers.o(i.xTimerGenericCommand) for xTimerGenericCommand
    cmsis_os2.o(i.vApplicationGetIdleTaskMemory) refers to cmsis_os2.o(.bss) for Idle_TCB
    cmsis_os2.o(i.vApplicationGetTimerTaskMemory) refers to cmsis_os2.o(.bss) for Timer_TCB
    heap_4.o(i.prvHeapInit) refers to heap_4.o(.bss) for ucHeap
    heap_4.o(i.prvHeapInit) refers to heap_4.o(.data) for xStart
    heap_4.o(i.prvInsertBlockIntoFreeList) refers to heap_4.o(.data) for xStart
    heap_4.o(i.pvPortMalloc) refers to tasks.o(i.vTaskSuspendAll) for vTaskSuspendAll
    heap_4.o(i.pvPortMalloc) refers to heap_4.o(i.prvHeapInit) for prvHeapInit
    heap_4.o(i.pvPortMalloc) refers to heap_4.o(i.prvInsertBlockIntoFreeList) for prvInsertBlockIntoFreeList
    heap_4.o(i.pvPortMalloc) refers to tasks.o(i.xTaskResumeAll) for xTaskResumeAll
    heap_4.o(i.pvPortMalloc) refers to heap_4.o(.data) for pxEnd
    heap_4.o(i.vPortFree) refers to tasks.o(i.vTaskSuspendAll) for vTaskSuspendAll
    heap_4.o(i.vPortFree) refers to heap_4.o(i.prvInsertBlockIntoFreeList) for prvInsertBlockIntoFreeList
    heap_4.o(i.vPortFree) refers to tasks.o(i.xTaskResumeAll) for xTaskResumeAll
    heap_4.o(i.vPortFree) refers to heap_4.o(.data) for xBlockAllocatedBit
    heap_4.o(i.vPortGetHeapStats) refers to tasks.o(i.vTaskSuspendAll) for vTaskSuspendAll
    heap_4.o(i.vPortGetHeapStats) refers to tasks.o(i.xTaskResumeAll) for xTaskResumeAll
    heap_4.o(i.vPortGetHeapStats) refers to port.o(i.vPortEnterCritical) for vPortEnterCritical
    heap_4.o(i.vPortGetHeapStats) refers to port.o(i.vPortExitCritical) for vPortExitCritical
    heap_4.o(i.vPortGetHeapStats) refers to heap_4.o(.data) for xStart
    heap_4.o(i.xPortGetFreeHeapSize) refers to heap_4.o(.data) for xFreeBytesRemaining
    heap_4.o(i.xPortGetMinimumEverFreeHeapSize) refers to heap_4.o(.data) for xMinimumEverFreeBytesRemaining
    port.o(.emb_text) refers to tasks.o(i.vTaskSwitchContext) for vTaskSwitchContext
    port.o(.emb_text) refers to tasks.o(.data) for pxCurrentTCB
    port.o(i.prvTaskExitError) refers to port.o(.data) for uxCriticalNesting
    port.o(i.pxPortInitialiseStack) refers to port.o(i.prvTaskExitError) for prvTaskExitError
    port.o(i.vPortEndScheduler) refers to port.o(.data) for uxCriticalNesting
    port.o(i.vPortEnterCritical) refers to port.o(.data) for uxCriticalNesting
    port.o(i.vPortExitCritical) refers to port.o(.data) for uxCriticalNesting
    port.o(i.vPortSetupTimerInterrupt) refers to system_stm32f1xx.o(.data) for SystemCoreClock
    port.o(i.vPortValidateInterruptPriority) refers to port.o(.emb_text) for vPortGetIPSR
    port.o(i.vPortValidateInterruptPriority) refers to port.o(.data) for ucMaxSysCallPriority
    port.o(i.xPortStartScheduler) refers to port.o(i.vPortSetupTimerInterrupt) for vPortSetupTimerInterrupt
    port.o(i.xPortStartScheduler) refers to port.o(.emb_text) for __asm___6_port_c_39a90d8d__prvStartFirstTask
    port.o(i.xPortStartScheduler) refers to port.o(.data) for ucMaxSysCallPriority
    port.o(i.xPortSysTickHandler) refers to tasks.o(i.xTaskIncrementTick) for xTaskIncrementTick
    entry.o(.ARM.Collect$$$$00000000) refers (Special) to entry10a.o(.ARM.Collect$$$$0000000D) for __rt_final_cpp
    entry.o(.ARM.Collect$$$$00000000) refers (Special) to entry11a.o(.ARM.Collect$$$$0000000F) for __rt_final_exit
    entry.o(.ARM.Collect$$$$00000000) refers (Special) to entry7b.o(.ARM.Collect$$$$00000008) for _main_clock
    entry.o(.ARM.Collect$$$$00000000) refers (Special) to entry8b.o(.ARM.Collect$$$$0000000A) for _main_cpp_init
    entry.o(.ARM.Collect$$$$00000000) refers (Special) to entry9a.o(.ARM.Collect$$$$0000000B) for _main_init
    entry.o(.ARM.Collect$$$$00000000) refers (Special) to entry5.o(.ARM.Collect$$$$00000004) for _main_scatterload
    entry.o(.ARM.Collect$$$$00000000) refers (Special) to entry2.o(.ARM.Collect$$$$00000001) for _main_stk
    strtok.o(.text) refers to strtok.o(.data) for .data
    strtok_r.o(.text) refers to strtok_r.o(.data) for .data
    entry2.o(.ARM.Collect$$$$00000001) refers to entry2.o(.ARM.Collect$$$$00002712) for __lit__00000000
    entry2.o(.ARM.Collect$$$$00002712) refers to startup_stm32f103xb.o(STACK) for __initial_sp
    entry2.o(__vectab_stack_and_reset_area) refers to startup_stm32f103xb.o(STACK) for __initial_sp
    entry2.o(__vectab_stack_and_reset_area) refers to entry.o(.ARM.Collect$$$$00000000) for __main
    entry5.o(.ARM.Collect$$$$00000004) refers to init.o(.text) for __scatterload
    entry9a.o(.ARM.Collect$$$$0000000B) refers to main.o(i.main) for main
    entry9b.o(.ARM.Collect$$$$0000000C) refers to main.o(i.main) for main
    init.o(.text) refers to entry5.o(.ARM.Collect$$$$00000004) for __main_after_scatterload


==============================================================================

Removing Unused input sections from the image.

    Removing dht11_task.o(.rev16_text), (4 bytes).
    Removing dht11_task.o(.revsh_text), (4 bytes).
    Removing dht11_task.o(.rrx_text), (6 bytes).
    Removing led_task.o(.rev16_text), (4 bytes).
    Removing led_task.o(.revsh_text), (4 bytes).
    Removing led_task.o(.rrx_text), (6 bytes).
    Removing button_operation.o(.rev16_text), (4 bytes).
    Removing button_operation.o(.revsh_text), (4 bytes).
    Removing button_operation.o(.rrx_text), (6 bytes).
    Removing cmd_interpreter_operation.o(.rev16_text), (4 bytes).
    Removing cmd_interpreter_operation.o(.revsh_text), (4 bytes).
    Removing cmd_interpreter_operation.o(.rrx_text), (6 bytes).
    Removing dht11_operation.o(.rev16_text), (4 bytes).
    Removing dht11_operation.o(.revsh_text), (4 bytes).
    Removing dht11_operation.o(.rrx_text), (6 bytes).
    Removing dht11_operation.o(i.c_pstGetDht11OperationRunningParam), (8 bytes).
    Removing led_operation.o(.rev16_text), (4 bytes).
    Removing led_operation.o(.revsh_text), (4 bytes).
    Removing led_operation.o(.rrx_text), (6 bytes).
    Removing oled_operation.o(.rev16_text), (4 bytes).
    Removing oled_operation.o(.revsh_text), (4 bytes).
    Removing oled_operation.o(.rrx_text), (6 bytes).
    Removing uart_operation.o(.rev16_text), (4 bytes).
    Removing uart_operation.o(.revsh_text), (4 bytes).
    Removing uart_operation.o(.rrx_text), (6 bytes).
    Removing button_device.o(.rev16_text), (4 bytes).
    Removing button_device.o(.revsh_text), (4 bytes).
    Removing button_device.o(.rrx_text), (6 bytes).
    Removing button_device.o(i.emButtonGetStatus), (20 bytes).
    Removing button_device.o(i.vButtonSetCurrentStatus), (56 bytes).
    Removing cmd_interpreter_device.o(i.c_pstCmdInterpreterGetRunningParam), (20 bytes).
    Removing cmd_interpreter_device.o(i.c_pstCmdInterpreterGetStaticParam), (20 bytes).
    Removing dht11_device.o(.rev16_text), (4 bytes).
    Removing dht11_device.o(.revsh_text), (4 bytes).
    Removing dht11_device.o(.rrx_text), (6 bytes).
    Removing dht11_device.o(i.c_pstDht11GetStaticParam), (20 bytes).
    Removing led_device.o(.rev16_text), (4 bytes).
    Removing led_device.o(.revsh_text), (4 bytes).
    Removing led_device.o(.rrx_text), (6 bytes).
    Removing led_device.o(i.vLedToggleCurrentStatus), (48 bytes).
    Removing oled_device.o(.rev16_text), (4 bytes).
    Removing oled_device.o(.revsh_text), (4 bytes).
    Removing oled_device.o(.rrx_text), (6 bytes).
    Removing oled_device.o(i.c_pstOledGetRunningParam), (20 bytes).
    Removing oled_device.o(i.vOledDisplayOff), (30 bytes).
    Removing oled_device.o(i.vOledDisplayOn), (30 bytes).
    Removing ui_frame_main.o(.rev16_text), (4 bytes).
    Removing ui_frame_main.o(.revsh_text), (4 bytes).
    Removing ui_frame_main.o(.rrx_text), (6 bytes).
    Removing ui_frame_led_ctrl.o(.rev16_text), (4 bytes).
    Removing ui_frame_led_ctrl.o(.revsh_text), (4 bytes).
    Removing ui_frame_led_ctrl.o(.rrx_text), (6 bytes).
    Removing ui_frame_dht11.o(.rev16_text), (4 bytes).
    Removing ui_frame_dht11.o(.revsh_text), (4 bytes).
    Removing ui_frame_dht11.o(.rrx_text), (6 bytes).
    Removing ui_core.o(i.s_ulUiPow), (22 bytes).
    Removing ui_core.o(i.vUiAddOneWidgetToFrameAsHeadWidgetNode), (26 bytes).
    Removing ui_core.o(i.vUiShowIntWithFrontZero), (106 bytes).
    Removing ui_core.o(i.vUiShowIntWithoutFrontZero), (182 bytes).
    Removing startup_stm32f103xb.o(HEAP), (512 bytes).
    Removing main.o(.rev16_text), (4 bytes).
    Removing main.o(.revsh_text), (4 bytes).
    Removing main.o(.rrx_text), (6 bytes).
    Removing main.o(i.vButtonProcessTask), (10 bytes).
    Removing main.o(i.vDht11Task), (10 bytes).
    Removing main.o(i.vLedTask), (10 bytes).
    Removing main.o(i.vLoopTask), (10 bytes).
    Removing main.o(i.vOledTask), (10 bytes).
    Removing main.o(i.vUartCmdInterpreterTask), (10 bytes).
    Removing main.o(i.vUartRxTask), (10 bytes).
    Removing main.o(i.vUartTxTask), (10 bytes).
    Removing freertos.o(.rev16_text), (4 bytes).
    Removing freertos.o(.revsh_text), (4 bytes).
    Removing freertos.o(.rrx_text), (6 bytes).
    Removing stm32f1xx_it.o(.rev16_text), (4 bytes).
    Removing stm32f1xx_it.o(.revsh_text), (4 bytes).
    Removing stm32f1xx_it.o(.rrx_text), (6 bytes).
    Removing stm32f1xx_hal_msp.o(.rev16_text), (4 bytes).
    Removing stm32f1xx_hal_msp.o(.revsh_text), (4 bytes).
    Removing stm32f1xx_hal_msp.o(.rrx_text), (6 bytes).
    Removing stm32f1xx_hal_msp.o(i.HAL_UART_MspDeInit), (56 bytes).
    Removing stm32f1xx_hal_gpio_ex.o(.rev16_text), (4 bytes).
    Removing stm32f1xx_hal_gpio_ex.o(.revsh_text), (4 bytes).
    Removing stm32f1xx_hal_gpio_ex.o(.rrx_text), (6 bytes).
    Removing stm32f1xx_hal_gpio_ex.o(i.HAL_GPIOEx_ConfigEventout), (24 bytes).
    Removing stm32f1xx_hal_gpio_ex.o(i.HAL_GPIOEx_DisableEventout), (20 bytes).
    Removing stm32f1xx_hal_gpio_ex.o(i.HAL_GPIOEx_EnableEventout), (20 bytes).
    Removing stm32f1xx_hal.o(.rev16_text), (4 bytes).
    Removing stm32f1xx_hal.o(.revsh_text), (4 bytes).
    Removing stm32f1xx_hal.o(.rrx_text), (6 bytes).
    Removing stm32f1xx_hal.o(i.HAL_DBGMCU_DisableDBGSleepMode), (20 bytes).
    Removing stm32f1xx_hal.o(i.HAL_DBGMCU_DisableDBGStandbyMode), (20 bytes).
    Removing stm32f1xx_hal.o(i.HAL_DBGMCU_DisableDBGStopMode), (20 bytes).
    Removing stm32f1xx_hal.o(i.HAL_DBGMCU_EnableDBGSleepMode), (20 bytes).
    Removing stm32f1xx_hal.o(i.HAL_DBGMCU_EnableDBGStandbyMode), (20 bytes).
    Removing stm32f1xx_hal.o(i.HAL_DBGMCU_EnableDBGStopMode), (20 bytes).
    Removing stm32f1xx_hal.o(i.HAL_DeInit), (36 bytes).
    Removing stm32f1xx_hal.o(i.HAL_Delay), (40 bytes).
    Removing stm32f1xx_hal.o(i.HAL_GetDEVID), (16 bytes).
    Removing stm32f1xx_hal.o(i.HAL_GetHalVersion), (8 bytes).
    Removing stm32f1xx_hal.o(i.HAL_GetREVID), (12 bytes).
    Removing stm32f1xx_hal.o(i.HAL_GetTickFreq), (12 bytes).
    Removing stm32f1xx_hal.o(i.HAL_GetTickPrio), (12 bytes).
    Removing stm32f1xx_hal.o(i.HAL_GetUIDw0), (12 bytes).
    Removing stm32f1xx_hal.o(i.HAL_GetUIDw1), (12 bytes).
    Removing stm32f1xx_hal.o(i.HAL_GetUIDw2), (12 bytes).
    Removing stm32f1xx_hal.o(i.HAL_MspDeInit), (2 bytes).
    Removing stm32f1xx_hal.o(i.HAL_MspInit), (2 bytes).
    Removing stm32f1xx_hal.o(i.HAL_ResumeTick), (18 bytes).
    Removing stm32f1xx_hal.o(i.HAL_SetTickFreq), (48 bytes).
    Removing stm32f1xx_hal.o(i.HAL_SuspendTick), (18 bytes).
    Removing stm32f1xx_hal_rcc.o(.rev16_text), (4 bytes).
    Removing stm32f1xx_hal_rcc.o(.revsh_text), (4 bytes).
    Removing stm32f1xx_hal_rcc.o(.rrx_text), (6 bytes).
    Removing stm32f1xx_hal_rcc.o(i.HAL_RCC_CSSCallback), (2 bytes).
    Removing stm32f1xx_hal_rcc.o(i.HAL_RCC_DeInit), (272 bytes).
    Removing stm32f1xx_hal_rcc.o(i.HAL_RCC_DisableCSS), (12 bytes).
    Removing stm32f1xx_hal_rcc.o(i.HAL_RCC_EnableCSS), (12 bytes).
    Removing stm32f1xx_hal_rcc.o(i.HAL_RCC_GetClockConfig), (68 bytes).
    Removing stm32f1xx_hal_rcc.o(i.HAL_RCC_GetOscConfig), (200 bytes).
    Removing stm32f1xx_hal_rcc.o(i.HAL_RCC_MCOConfig), (100 bytes).
    Removing stm32f1xx_hal_rcc.o(i.HAL_RCC_NMI_IRQHandler), (32 bytes).
    Removing stm32f1xx_hal_rcc_ex.o(.rev16_text), (4 bytes).
    Removing stm32f1xx_hal_rcc_ex.o(.revsh_text), (4 bytes).
    Removing stm32f1xx_hal_rcc_ex.o(.rrx_text), (6 bytes).
    Removing stm32f1xx_hal_rcc_ex.o(i.HAL_RCCEx_GetPeriphCLKConfig), (60 bytes).
    Removing stm32f1xx_hal_rcc_ex.o(i.HAL_RCCEx_GetPeriphCLKFreq), (252 bytes).
    Removing stm32f1xx_hal_rcc_ex.o(i.HAL_RCCEx_PeriphCLKConfig), (304 bytes).
    Removing stm32f1xx_hal_rcc_ex.o(.constdata), (18 bytes).
    Removing stm32f1xx_hal_gpio.o(.rev16_text), (4 bytes).
    Removing stm32f1xx_hal_gpio.o(.revsh_text), (4 bytes).
    Removing stm32f1xx_hal_gpio.o(.rrx_text), (6 bytes).
    Removing stm32f1xx_hal_gpio.o(i.HAL_GPIO_DeInit), (308 bytes).
    Removing stm32f1xx_hal_gpio.o(i.HAL_GPIO_EXTI_Callback), (2 bytes).
    Removing stm32f1xx_hal_gpio.o(i.HAL_GPIO_EXTI_IRQHandler), (28 bytes).
    Removing stm32f1xx_hal_gpio.o(i.HAL_GPIO_LockPin), (46 bytes).
    Removing stm32f1xx_hal_gpio.o(i.HAL_GPIO_TogglePin), (20 bytes).
    Removing stm32f1xx_hal_dma.o(.rev16_text), (4 bytes).
    Removing stm32f1xx_hal_dma.o(.revsh_text), (4 bytes).
    Removing stm32f1xx_hal_dma.o(.rrx_text), (6 bytes).
    Removing stm32f1xx_hal_dma.o(i.DMA_SetConfig), (44 bytes).
    Removing stm32f1xx_hal_dma.o(i.HAL_DMA_Abort), (86 bytes).
    Removing stm32f1xx_hal_dma.o(i.HAL_DMA_Abort_IT), (176 bytes).
    Removing stm32f1xx_hal_dma.o(i.HAL_DMA_DeInit), (104 bytes).
    Removing stm32f1xx_hal_dma.o(i.HAL_DMA_GetError), (6 bytes).
    Removing stm32f1xx_hal_dma.o(i.HAL_DMA_GetState), (8 bytes).
    Removing stm32f1xx_hal_dma.o(i.HAL_DMA_IRQHandler), (412 bytes).
    Removing stm32f1xx_hal_dma.o(i.HAL_DMA_Init), (104 bytes).
    Removing stm32f1xx_hal_dma.o(i.HAL_DMA_PollForTransfer), (692 bytes).
    Removing stm32f1xx_hal_dma.o(i.HAL_DMA_RegisterCallback), (90 bytes).
    Removing stm32f1xx_hal_dma.o(i.HAL_DMA_Start), (114 bytes).
    Removing stm32f1xx_hal_dma.o(i.HAL_DMA_Start_IT), (156 bytes).
    Removing stm32f1xx_hal_dma.o(i.HAL_DMA_UnRegisterCallback), (106 bytes).
    Removing stm32f1xx_hal_cortex.o(.rev16_text), (4 bytes).
    Removing stm32f1xx_hal_cortex.o(.revsh_text), (4 bytes).
    Removing stm32f1xx_hal_cortex.o(.rrx_text), (6 bytes).
    Removing stm32f1xx_hal_cortex.o(i.HAL_NVIC_ClearPendingIRQ), (36 bytes).
    Removing stm32f1xx_hal_cortex.o(i.HAL_NVIC_DisableIRQ), (68 bytes).
    Removing stm32f1xx_hal_cortex.o(i.HAL_NVIC_GetActive), (48 bytes).
    Removing stm32f1xx_hal_cortex.o(i.HAL_NVIC_GetPendingIRQ), (48 bytes).
    Removing stm32f1xx_hal_cortex.o(i.HAL_NVIC_GetPriority), (148 bytes).
    Removing stm32f1xx_hal_cortex.o(i.HAL_NVIC_GetPriorityGrouping), (8 bytes).
    Removing stm32f1xx_hal_cortex.o(i.HAL_NVIC_SetPendingIRQ), (36 bytes).
    Removing stm32f1xx_hal_cortex.o(i.HAL_NVIC_SystemReset), (68 bytes).
    Removing stm32f1xx_hal_cortex.o(i.HAL_SYSTICK_CLKSourceConfig), (40 bytes).
    Removing stm32f1xx_hal_cortex.o(i.HAL_SYSTICK_Callback), (2 bytes).
    Removing stm32f1xx_hal_cortex.o(i.HAL_SYSTICK_IRQHandler), (8 bytes).
    Removing stm32f1xx_hal_pwr.o(.rev16_text), (4 bytes).
    Removing stm32f1xx_hal_pwr.o(.revsh_text), (4 bytes).
    Removing stm32f1xx_hal_pwr.o(.rrx_text), (6 bytes).
    Removing stm32f1xx_hal_pwr.o(i.HAL_PWR_ConfigPVD), (180 bytes).
    Removing stm32f1xx_hal_pwr.o(i.HAL_PWR_DeInit), (28 bytes).
    Removing stm32f1xx_hal_pwr.o(i.HAL_PWR_DisableBkUpAccess), (12 bytes).
    Removing stm32f1xx_hal_pwr.o(i.HAL_PWR_DisablePVD), (12 bytes).
    Removing stm32f1xx_hal_pwr.o(i.HAL_PWR_DisableSEVOnPend), (20 bytes).
    Removing stm32f1xx_hal_pwr.o(i.HAL_PWR_DisableSleepOnExit), (20 bytes).
    Removing stm32f1xx_hal_pwr.o(i.HAL_PWR_DisableWakeUpPin), (28 bytes).
    Removing stm32f1xx_hal_pwr.o(i.HAL_PWR_EnableBkUpAccess), (12 bytes).
    Removing stm32f1xx_hal_pwr.o(i.HAL_PWR_EnablePVD), (12 bytes).
    Removing stm32f1xx_hal_pwr.o(i.HAL_PWR_EnableSEVOnPend), (20 bytes).
    Removing stm32f1xx_hal_pwr.o(i.HAL_PWR_EnableSleepOnExit), (20 bytes).
    Removing stm32f1xx_hal_pwr.o(i.HAL_PWR_EnableWakeUpPin), (28 bytes).
    Removing stm32f1xx_hal_pwr.o(i.HAL_PWR_EnterSLEEPMode), (32 bytes).
    Removing stm32f1xx_hal_pwr.o(i.HAL_PWR_EnterSTANDBYMode), (40 bytes).
    Removing stm32f1xx_hal_pwr.o(i.HAL_PWR_EnterSTOPMode), (84 bytes).
    Removing stm32f1xx_hal_pwr.o(i.HAL_PWR_PVDCallback), (2 bytes).
    Removing stm32f1xx_hal_pwr.o(i.HAL_PWR_PVD_IRQHandler), (32 bytes).
    Removing stm32f1xx_hal_pwr.o(i.PWR_OverloadWfe), (6 bytes).
    Removing stm32f1xx_hal_flash.o(.rev16_text), (4 bytes).
    Removing stm32f1xx_hal_flash.o(.revsh_text), (4 bytes).
    Removing stm32f1xx_hal_flash.o(.rrx_text), (6 bytes).
    Removing stm32f1xx_hal_flash.o(i.FLASH_Program_HalfWord), (32 bytes).
    Removing stm32f1xx_hal_flash.o(i.FLASH_SetErrorCode), (132 bytes).
    Removing stm32f1xx_hal_flash.o(i.FLASH_WaitForLastOperation), (112 bytes).
    Removing stm32f1xx_hal_flash.o(i.HAL_FLASH_EndOfOperationCallback), (2 bytes).
    Removing stm32f1xx_hal_flash.o(i.HAL_FLASH_GetError), (12 bytes).
    Removing stm32f1xx_hal_flash.o(i.HAL_FLASH_IRQHandler), (376 bytes).
    Removing stm32f1xx_hal_flash.o(i.HAL_FLASH_Lock), (20 bytes).
    Removing stm32f1xx_hal_flash.o(i.HAL_FLASH_OB_Launch), (8 bytes).
    Removing stm32f1xx_hal_flash.o(i.HAL_FLASH_OB_Lock), (20 bytes).
    Removing stm32f1xx_hal_flash.o(i.HAL_FLASH_OB_Unlock), (44 bytes).
    Removing stm32f1xx_hal_flash.o(i.HAL_FLASH_OperationErrorCallback), (2 bytes).
    Removing stm32f1xx_hal_flash.o(i.HAL_FLASH_Program), (176 bytes).
    Removing stm32f1xx_hal_flash.o(i.HAL_FLASH_Program_IT), (100 bytes).
    Removing stm32f1xx_hal_flash.o(i.HAL_FLASH_Unlock), (48 bytes).
    Removing stm32f1xx_hal_flash.o(.bss), (32 bytes).
    Removing stm32f1xx_hal_flash_ex.o(.rev16_text), (4 bytes).
    Removing stm32f1xx_hal_flash_ex.o(.revsh_text), (4 bytes).
    Removing stm32f1xx_hal_flash_ex.o(.rrx_text), (6 bytes).
    Removing stm32f1xx_hal_flash_ex.o(i.FLASH_MassErase), (40 bytes).
    Removing stm32f1xx_hal_flash_ex.o(i.FLASH_OB_DisableWRP), (232 bytes).
    Removing stm32f1xx_hal_flash_ex.o(i.FLASH_OB_EnableWRP), (236 bytes).
    Removing stm32f1xx_hal_flash_ex.o(i.FLASH_OB_GetRDP), (28 bytes).
    Removing stm32f1xx_hal_flash_ex.o(i.FLASH_OB_GetUser), (16 bytes).
    Removing stm32f1xx_hal_flash_ex.o(i.FLASH_OB_GetWRP), (12 bytes).
    Removing stm32f1xx_hal_flash_ex.o(i.FLASH_OB_ProgramData), (76 bytes).
    Removing stm32f1xx_hal_flash_ex.o(i.FLASH_OB_RDP_LevelConfig), (124 bytes).
    Removing stm32f1xx_hal_flash_ex.o(i.FLASH_OB_UserConfig), (84 bytes).
    Removing stm32f1xx_hal_flash_ex.o(i.FLASH_PageErase), (40 bytes).
    Removing stm32f1xx_hal_flash_ex.o(i.HAL_FLASHEx_Erase), (176 bytes).
    Removing stm32f1xx_hal_flash_ex.o(i.HAL_FLASHEx_Erase_IT), (80 bytes).
    Removing stm32f1xx_hal_flash_ex.o(i.HAL_FLASHEx_OBErase), (96 bytes).
    Removing stm32f1xx_hal_flash_ex.o(i.HAL_FLASHEx_OBGetConfig), (28 bytes).
    Removing stm32f1xx_hal_flash_ex.o(i.HAL_FLASHEx_OBGetUserData), (40 bytes).
    Removing stm32f1xx_hal_flash_ex.o(i.HAL_FLASHEx_OBProgram), (200 bytes).
    Removing stm32f1xx_hal_exti.o(.rev16_text), (4 bytes).
    Removing stm32f1xx_hal_exti.o(.revsh_text), (4 bytes).
    Removing stm32f1xx_hal_exti.o(.rrx_text), (6 bytes).
    Removing stm32f1xx_hal_exti.o(i.HAL_EXTI_ClearConfigLine), (120 bytes).
    Removing stm32f1xx_hal_exti.o(i.HAL_EXTI_ClearPending), (28 bytes).
    Removing stm32f1xx_hal_exti.o(i.HAL_EXTI_GenerateSWI), (24 bytes).
    Removing stm32f1xx_hal_exti.o(i.HAL_EXTI_GetConfigLine), (156 bytes).
    Removing stm32f1xx_hal_exti.o(i.HAL_EXTI_GetHandle), (14 bytes).
    Removing stm32f1xx_hal_exti.o(i.HAL_EXTI_GetPending), (36 bytes).
    Removing stm32f1xx_hal_exti.o(i.HAL_EXTI_IRQHandler), (44 bytes).
    Removing stm32f1xx_hal_exti.o(i.HAL_EXTI_RegisterCallback), (20 bytes).
    Removing stm32f1xx_hal_exti.o(i.HAL_EXTI_SetConfigLine), (240 bytes).
    Removing stm32f1xx_hal_tim.o(.rev16_text), (4 bytes).
    Removing stm32f1xx_hal_tim.o(.revsh_text), (4 bytes).
    Removing stm32f1xx_hal_tim.o(.rrx_text), (6 bytes).
    Removing stm32f1xx_hal_tim_ex.o(.rev16_text), (4 bytes).
    Removing stm32f1xx_hal_tim_ex.o(.revsh_text), (4 bytes).
    Removing stm32f1xx_hal_tim_ex.o(.rrx_text), (6 bytes).
    Removing stm32f1xx_hal_uart.o(.rev16_text), (4 bytes).
    Removing stm32f1xx_hal_uart.o(.revsh_text), (4 bytes).
    Removing stm32f1xx_hal_uart.o(.rrx_text), (6 bytes).
    Removing stm32f1xx_hal_uart.o(i.HAL_HalfDuplex_EnableReceiver), (68 bytes).
    Removing stm32f1xx_hal_uart.o(i.HAL_HalfDuplex_EnableTransmitter), (68 bytes).
    Removing stm32f1xx_hal_uart.o(i.HAL_HalfDuplex_Init), (122 bytes).
    Removing stm32f1xx_hal_uart.o(i.HAL_LIN_Init), (146 bytes).
    Removing stm32f1xx_hal_uart.o(i.HAL_LIN_SendBreak), (80 bytes).
    Removing stm32f1xx_hal_uart.o(i.HAL_MultiProcessor_EnterMuteMode), (82 bytes).
    Removing stm32f1xx_hal_uart.o(i.HAL_MultiProcessor_ExitMuteMode), (82 bytes).
    Removing stm32f1xx_hal_uart.o(i.HAL_MultiProcessor_Init), (158 bytes).
    Removing stm32f1xx_hal_uart.o(i.HAL_UARTEx_GetRxEventType), (6 bytes).
    Removing stm32f1xx_hal_uart.o(i.HAL_UARTEx_ReceiveToIdle), (296 bytes).
    Removing stm32f1xx_hal_uart.o(i.HAL_UARTEx_ReceiveToIdle_DMA), (112 bytes).
    Removing stm32f1xx_hal_uart.o(i.HAL_UARTEx_ReceiveToIdle_IT), (114 bytes).
    Removing stm32f1xx_hal_uart.o(i.HAL_UARTEx_RxEventCallback), (2 bytes).
    Removing stm32f1xx_hal_uart.o(i.HAL_UART_Abort), (278 bytes).
    Removing stm32f1xx_hal_uart.o(i.HAL_UART_AbortCpltCallback), (2 bytes).
    Removing stm32f1xx_hal_uart.o(i.HAL_UART_AbortReceive), (194 bytes).
    Removing stm32f1xx_hal_uart.o(i.HAL_UART_AbortReceiveCpltCallback), (2 bytes).
    Removing stm32f1xx_hal_uart.o(i.HAL_UART_AbortReceive_IT), (216 bytes).
    Removing stm32f1xx_hal_uart.o(i.HAL_UART_AbortTransmit), (124 bytes).
    Removing stm32f1xx_hal_uart.o(i.HAL_UART_AbortTransmitCpltCallback), (2 bytes).
    Removing stm32f1xx_hal_uart.o(i.HAL_UART_AbortTransmit_IT), (144 bytes).
    Removing stm32f1xx_hal_uart.o(i.HAL_UART_Abort_IT), (328 bytes).
    Removing stm32f1xx_hal_uart.o(i.HAL_UART_DMAPause), (166 bytes).
    Removing stm32f1xx_hal_uart.o(i.HAL_UART_DMAResume), (170 bytes).
    Removing stm32f1xx_hal_uart.o(i.HAL_UART_DMAStop), (138 bytes).
    Removing stm32f1xx_hal_uart.o(i.HAL_UART_DeInit), (62 bytes).
    Removing stm32f1xx_hal_uart.o(i.HAL_UART_ErrorCallback), (2 bytes).
    Removing stm32f1xx_hal_uart.o(i.HAL_UART_GetError), (6 bytes).
    Removing stm32f1xx_hal_uart.o(i.HAL_UART_GetState), (20 bytes).
    Removing stm32f1xx_hal_uart.o(i.HAL_UART_IRQHandler), (740 bytes).
    Removing stm32f1xx_hal_uart.o(i.HAL_UART_MspDeInit), (2 bytes).
    Removing stm32f1xx_hal_uart.o(i.HAL_UART_MspInit), (2 bytes).
    Removing stm32f1xx_hal_uart.o(i.HAL_UART_Receive), (194 bytes).
    Removing stm32f1xx_hal_uart.o(i.HAL_UART_Receive_DMA), (44 bytes).
    Removing stm32f1xx_hal_uart.o(i.HAL_UART_Receive_IT), (44 bytes).
    Removing stm32f1xx_hal_uart.o(i.HAL_UART_RxCpltCallback), (2 bytes).
    Removing stm32f1xx_hal_uart.o(i.HAL_UART_RxHalfCpltCallback), (2 bytes).
    Removing stm32f1xx_hal_uart.o(i.HAL_UART_Transmit_DMA), (140 bytes).
    Removing stm32f1xx_hal_uart.o(i.HAL_UART_Transmit_IT), (56 bytes).
    Removing stm32f1xx_hal_uart.o(i.HAL_UART_TxCpltCallback), (2 bytes).
    Removing stm32f1xx_hal_uart.o(i.HAL_UART_TxHalfCpltCallback), (2 bytes).
    Removing stm32f1xx_hal_uart.o(i.UART_DMAAbortOnError), (20 bytes).
    Removing stm32f1xx_hal_uart.o(i.UART_DMAError), (80 bytes).
    Removing stm32f1xx_hal_uart.o(i.UART_DMAReceiveCplt), (180 bytes).
    Removing stm32f1xx_hal_uart.o(i.UART_DMARxAbortCallback), (56 bytes).
    Removing stm32f1xx_hal_uart.o(i.UART_DMARxHalfCplt), (36 bytes).
    Removing stm32f1xx_hal_uart.o(i.UART_DMARxOnlyAbortCallback), (28 bytes).
    Removing stm32f1xx_hal_uart.o(i.UART_DMATransmitCplt), (88 bytes).
    Removing stm32f1xx_hal_uart.o(i.UART_DMATxAbortCallback), (56 bytes).
    Removing stm32f1xx_hal_uart.o(i.UART_DMATxHalfCplt), (14 bytes).
    Removing stm32f1xx_hal_uart.o(i.UART_DMATxOnlyAbortCallback), (24 bytes).
    Removing stm32f1xx_hal_uart.o(i.UART_EndTransmit_IT), (32 bytes).
    Removing stm32f1xx_hal_uart.o(i.UART_EndTxTransfer), (38 bytes).
    Removing stm32f1xx_hal_uart.o(i.UART_Receive_IT), (252 bytes).
    Removing stm32f1xx_hal_uart.o(i.UART_Start_Receive_DMA), (200 bytes).
    Removing stm32f1xx_hal_uart.o(i.UART_Start_Receive_IT), (64 bytes).
    Removing stm32f1xx_hal_uart.o(i.UART_Transmit_IT), (96 bytes).
    Removing system_stm32f1xx.o(.rev16_text), (4 bytes).
    Removing system_stm32f1xx.o(.revsh_text), (4 bytes).
    Removing system_stm32f1xx.o(.rrx_text), (6 bytes).
    Removing system_stm32f1xx.o(i.SystemCoreClockUpdate), (164 bytes).
    Removing event_groups.o(i.prvTestWaitCondition), (30 bytes).
    Removing event_groups.o(i.uxEventGroupGetNumber), (14 bytes).
    Removing event_groups.o(i.vEventGroupClearBitsCallback), (16 bytes).
    Removing event_groups.o(i.vEventGroupDelete), (86 bytes).
    Removing event_groups.o(i.vEventGroupSetBitsCallback), (16 bytes).
    Removing event_groups.o(i.vEventGroupSetNumber), (4 bytes).
    Removing event_groups.o(i.xEventGroupClearBits), (92 bytes).
    Removing event_groups.o(i.xEventGroupClearBitsFromISR), (28 bytes).
    Removing event_groups.o(i.xEventGroupCreate), (30 bytes).
    Removing event_groups.o(i.xEventGroupCreateStatic), (90 bytes).
    Removing event_groups.o(i.xEventGroupGetBitsFromISR), (44 bytes).
    Removing event_groups.o(i.xEventGroupSetBits), (206 bytes).
    Removing event_groups.o(i.xEventGroupSetBitsFromISR), (36 bytes).
    Removing event_groups.o(i.xEventGroupSync), (272 bytes).
    Removing event_groups.o(i.xEventGroupWaitBits), (344 bytes).
    Removing queue.o(i.pcQueueGetName), (44 bytes).
    Removing queue.o(i.prvGetDisinheritPriorityAfterTimeout), (20 bytes).
    Removing queue.o(i.prvInitialiseMutex), (30 bytes).
    Removing queue.o(i.ucQueueGetQueueType), (8 bytes).
    Removing queue.o(i.uxQueueGetQueueNumber), (6 bytes).
    Removing queue.o(i.uxQueueMessagesWaiting), (42 bytes).
    Removing queue.o(i.uxQueueMessagesWaitingFromISR), (34 bytes).
    Removing queue.o(i.uxQueueSpacesAvailable), (48 bytes).
    Removing queue.o(i.vQueueDelete), (50 bytes).
    Removing queue.o(i.vQueueSetQueueNumber), (4 bytes).
    Removing queue.o(i.vQueueUnregisterQueue), (48 bytes).
    Removing queue.o(i.xQueueCreateCountingSemaphore), (92 bytes).
    Removing queue.o(i.xQueueCreateCountingSemaphoreStatic), (100 bytes).
    Removing queue.o(i.xQueueCreateMutex), (34 bytes).
    Removing queue.o(i.xQueueCreateMutexStatic), (42 bytes).
    Removing queue.o(i.xQueueGetMutexHolder), (28 bytes).
    Removing queue.o(i.xQueueGetMutexHolderFromISR), (38 bytes).
    Removing queue.o(i.xQueueGiveFromISR), (224 bytes).
    Removing queue.o(i.xQueueGiveMutexRecursive), (72 bytes).
    Removing queue.o(i.xQueueIsQueueEmptyFromISR), (42 bytes).
    Removing queue.o(i.xQueueIsQueueFullFromISR), (46 bytes).
    Removing queue.o(i.xQueuePeek), (368 bytes).
    Removing queue.o(i.xQueuePeekFromISR), (176 bytes).
    Removing queue.o(i.xQueueReceiveFromISR), (202 bytes).
    Removing queue.o(i.xQueueSemaphoreTake), (440 bytes).
    Removing queue.o(i.xQueueTakeMutexRecursive), (78 bytes).
    Removing stream_buffer.o(i.prvBytesInBuffer), (24 bytes).
    Removing stream_buffer.o(i.prvInitialiseNewStreamBuffer), (86 bytes).
    Removing stream_buffer.o(i.prvReadBytesFromBuffer), (202 bytes).
    Removing stream_buffer.o(i.prvReadMessageFromBuffer), (72 bytes).
    Removing stream_buffer.o(i.prvWriteBytesToBuffer), (186 bytes).
    Removing stream_buffer.o(i.prvWriteMessageToBuffer), (92 bytes).
    Removing stream_buffer.o(i.ucStreamBufferGetStreamBufferType), (10 bytes).
    Removing stream_buffer.o(i.uxStreamBufferGetStreamBufferNumber), (6 bytes).
    Removing stream_buffer.o(i.vStreamBufferDelete), (56 bytes).
    Removing stream_buffer.o(i.vStreamBufferSetStreamBufferNumber), (4 bytes).
    Removing stream_buffer.o(i.xStreamBufferBytesAvailable), (42 bytes).
    Removing stream_buffer.o(i.xStreamBufferGenericCreate), (160 bytes).
    Removing stream_buffer.o(i.xStreamBufferGenericCreateStatic), (238 bytes).
    Removing stream_buffer.o(i.xStreamBufferIsEmpty), (46 bytes).
    Removing stream_buffer.o(i.xStreamBufferIsFull), (64 bytes).
    Removing stream_buffer.o(i.xStreamBufferNextMessageLengthBytes), (120 bytes).
    Removing stream_buffer.o(i.xStreamBufferReceive), (254 bytes).
    Removing stream_buffer.o(i.xStreamBufferReceiveCompletedFromISR), (102 bytes).
    Removing stream_buffer.o(i.xStreamBufferReceiveFromISR), (184 bytes).
    Removing stream_buffer.o(i.xStreamBufferReset), (74 bytes).
    Removing stream_buffer.o(i.xStreamBufferSend), (312 bytes).
    Removing stream_buffer.o(i.xStreamBufferSendCompletedFromISR), (102 bytes).
    Removing stream_buffer.o(i.xStreamBufferSendFromISR), (184 bytes).
    Removing stream_buffer.o(i.xStreamBufferSetTriggerLevel), (50 bytes).
    Removing stream_buffer.o(i.xStreamBufferSpacesAvailable), (54 bytes).
    Removing tasks.o(i.eTaskGetState), (148 bytes).
    Removing tasks.o(i.pcTaskGetName), (48 bytes).
    Removing tasks.o(i.prvListTasksWithinSingleList), (106 bytes).
    Removing tasks.o(i.prvTaskCheckFreeStackSpace), (22 bytes).
    Removing tasks.o(i.prvTaskIsTaskSuspended), (88 bytes).
    Removing tasks.o(i.pvTaskIncrementMutexHeldCount), (32 bytes).
    Removing tasks.o(i.ulTaskNotifyTake), (116 bytes).
    Removing tasks.o(i.ulTaskNotifyValueClear), (52 bytes).
    Removing tasks.o(i.uxTaskGetNumberOfTasks), (12 bytes).
    Removing tasks.o(i.uxTaskGetStackHighWaterMark), (40 bytes).
    Removing tasks.o(i.uxTaskGetSystemState), (176 bytes).
    Removing tasks.o(i.uxTaskGetTaskNumber), (14 bytes).
    Removing tasks.o(i.uxTaskPriorityGet), (36 bytes).
    Removing tasks.o(i.uxTaskPriorityGetFromISR), (68 bytes).
    Removing tasks.o(i.uxTaskResetEventItemValue), (28 bytes).
    Removing tasks.o(i.vTaskDelayUntil), (212 bytes).
    Removing tasks.o(i.vTaskDelete), (200 bytes).
    Removing tasks.o(i.vTaskEndScheduler), (36 bytes).
    Removing tasks.o(i.vTaskGetInfo), (132 bytes).
    Removing tasks.o(i.vTaskNotifyGiveFromISR), (236 bytes).
    Removing tasks.o(i.vTaskPlaceOnUnorderedEventList), (108 bytes).
    Removing tasks.o(i.vTaskPriorityDisinheritAfterTimeout), (208 bytes).
    Removing tasks.o(i.vTaskPrioritySet), (256 bytes).
    Removing tasks.o(i.vTaskRemoveFromUnorderedEventList), (160 bytes).
    Removing tasks.o(i.vTaskResume), (144 bytes).
    Removing tasks.o(i.vTaskSetTaskNumber), (8 bytes).
    Removing tasks.o(i.vTaskSetTimeOutState), (60 bytes).
    Removing tasks.o(i.vTaskSuspend), (200 bytes).
    Removing tasks.o(i.xTaskCatchUpTicks), (76 bytes).
    Removing tasks.o(i.xTaskGenericNotify), (296 bytes).
    Removing tasks.o(i.xTaskGenericNotifyFromISR), (356 bytes).
    Removing tasks.o(i.xTaskGetCurrentTaskHandle), (12 bytes).
    Removing tasks.o(i.xTaskGetTickCountFromISR), (20 bytes).
    Removing tasks.o(i.xTaskNotifyStateClear), (52 bytes).
    Removing tasks.o(i.xTaskNotifyWait), (160 bytes).
    Removing tasks.o(i.xTaskPriorityInherit), (164 bytes).
    Removing tasks.o(i.xTaskResumeFromISR), (176 bytes).
    Removing timers.o(i.pcTimerGetName), (32 bytes).
    Removing timers.o(i.prvInitialiseNewTimer), (90 bytes).
    Removing timers.o(i.pvTimerGetTimerID), (44 bytes).
    Removing timers.o(i.uxTimerGetReloadMode), (58 bytes).
    Removing timers.o(i.uxTimerGetTimerNumber), (6 bytes).
    Removing timers.o(i.vTimerSetReloadMode), (70 bytes).
    Removing timers.o(i.vTimerSetTimerID), (44 bytes).
    Removing timers.o(i.vTimerSetTimerNumber), (4 bytes).
    Removing timers.o(i.xTimerCreate), (54 bytes).
    Removing timers.o(i.xTimerCreateStatic), (114 bytes).
    Removing timers.o(i.xTimerGetExpiryTime), (34 bytes).
    Removing timers.o(i.xTimerGetPeriod), (32 bytes).
    Removing timers.o(i.xTimerGetTimerDaemonTaskHandle), (48 bytes).
    Removing timers.o(i.xTimerIsTimerActive), (58 bytes).
    Removing timers.o(i.xTimerPendFunctionCall), (80 bytes).
    Removing timers.o(i.xTimerPendFunctionCallFromISR), (52 bytes).
    Removing cmsis_os2.o(.rev16_text), (4 bytes).
    Removing cmsis_os2.o(.revsh_text), (4 bytes).
    Removing cmsis_os2.o(.rrx_text), (6 bytes).
    Removing cmsis_os2.o(i.AllocBlock), (16 bytes).
    Removing cmsis_os2.o(i.CreateBlock), (32 bytes).
    Removing cmsis_os2.o(i.FreeBlock), (10 bytes).
    Removing cmsis_os2.o(i.OS_Tick_GetCount), (12 bytes).
    Removing cmsis_os2.o(i.OS_Tick_GetInterval), (10 bytes).
    Removing cmsis_os2.o(i.OS_Tick_GetOverflow), (12 bytes).
    Removing cmsis_os2.o(i.TimerCallback), (22 bytes).
    Removing cmsis_os2.o(i.osDelayUntil), (52 bytes).
    Removing cmsis_os2.o(i.osEventFlagsClear), (70 bytes).
    Removing cmsis_os2.o(i.osEventFlagsDelete), (38 bytes).
    Removing cmsis_os2.o(i.osEventFlagsGet), (42 bytes).
    Removing cmsis_os2.o(i.osEventFlagsNew), (70 bytes).
    Removing cmsis_os2.o(i.osEventFlagsSet), (92 bytes).
    Removing cmsis_os2.o(i.osEventFlagsWait), (144 bytes).
    Removing cmsis_os2.o(i.osKernelGetInfo), (64 bytes).
    Removing cmsis_os2.o(i.osKernelGetState), (52 bytes).
    Removing cmsis_os2.o(i.osKernelGetSysTimerCount), (70 bytes).
    Removing cmsis_os2.o(i.osKernelGetSysTimerFreq), (12 bytes).
    Removing cmsis_os2.o(i.osKernelGetTickCount), (26 bytes).
    Removing cmsis_os2.o(i.osKernelGetTickFreq), (6 bytes).
    Removing cmsis_os2.o(i.osKernelLock), (56 bytes).
    Removing cmsis_os2.o(i.osKernelRestoreLock), (88 bytes).
    Removing cmsis_os2.o(i.osKernelUnlock), (68 bytes).
    Removing cmsis_os2.o(i.osMemoryPoolAlloc), (176 bytes).
    Removing cmsis_os2.o(i.osMemoryPoolDelete), (102 bytes).
    Removing cmsis_os2.o(i.osMemoryPoolFree), (224 bytes).
    Removing cmsis_os2.o(i.osMemoryPoolGetBlockSize), (36 bytes).
    Removing cmsis_os2.o(i.osMemoryPoolGetCapacity), (36 bytes).
    Removing cmsis_os2.o(i.osMemoryPoolGetCount), (64 bytes).
    Removing cmsis_os2.o(i.osMemoryPoolGetName), (28 bytes).
    Removing cmsis_os2.o(i.osMemoryPoolGetSpace), (60 bytes).
    Removing cmsis_os2.o(i.osMemoryPoolNew), (276 bytes).
    Removing cmsis_os2.o(i.osMessageQueueDelete), (44 bytes).
    Removing cmsis_os2.o(i.osMessageQueueGet), (128 bytes).
    Removing cmsis_os2.o(i.osMessageQueueGetCapacity), (14 bytes).
    Removing cmsis_os2.o(i.osMessageQueueGetCount), (40 bytes).
    Removing cmsis_os2.o(i.osMessageQueueGetMsgSize), (14 bytes).
    Removing cmsis_os2.o(i.osMessageQueueGetSpace), (74 bytes).
    Removing cmsis_os2.o(i.osMessageQueueNew), (154 bytes).
    Removing cmsis_os2.o(i.osMessageQueuePut), (132 bytes).
    Removing cmsis_os2.o(i.osMessageQueueReset), (40 bytes).
    Removing cmsis_os2.o(i.osMutexAcquire), (98 bytes).
    Removing cmsis_os2.o(i.osMutexDelete), (46 bytes).
    Removing cmsis_os2.o(i.osMutexGetOwner), (32 bytes).
    Removing cmsis_os2.o(i.osMutexNew), (178 bytes).
    Removing cmsis_os2.o(i.osMutexRelease), (78 bytes).
    Removing cmsis_os2.o(i.osSemaphoreAcquire), (108 bytes).
    Removing cmsis_os2.o(i.osSemaphoreDelete), (44 bytes).
    Removing cmsis_os2.o(i.osSemaphoreGetCount), (40 bytes).
    Removing cmsis_os2.o(i.osSemaphoreNew), (204 bytes).
    Removing cmsis_os2.o(i.osSemaphoreRelease), (92 bytes).
    Removing cmsis_os2.o(i.osThreadEnumerate), (106 bytes).
    Removing cmsis_os2.o(i.osThreadExit), (10 bytes).
    Removing cmsis_os2.o(i.osThreadFlagsClear), (88 bytes).
    Removing cmsis_os2.o(i.osThreadFlagsGet), (48 bytes).
    Removing cmsis_os2.o(i.osThreadFlagsSet), (128 bytes).
    Removing cmsis_os2.o(i.osThreadFlagsWait), (178 bytes).
    Removing cmsis_os2.o(i.osThreadGetCount), (22 bytes).
    Removing cmsis_os2.o(i.osThreadGetId), (12 bytes).
    Removing cmsis_os2.o(i.osThreadGetName), (30 bytes).
    Removing cmsis_os2.o(i.osThreadGetPriority), (32 bytes).
    Removing cmsis_os2.o(i.osThreadGetStackSpace), (30 bytes).
    Removing cmsis_os2.o(i.osThreadGetState), (72 bytes).
    Removing cmsis_os2.o(i.osThreadResume), (38 bytes).
    Removing cmsis_os2.o(i.osThreadSetPriority), (54 bytes).
    Removing cmsis_os2.o(i.osThreadSuspend), (38 bytes).
    Removing cmsis_os2.o(i.osThreadTerminate), (60 bytes).
    Removing cmsis_os2.o(i.osThreadYield), (40 bytes).
    Removing cmsis_os2.o(i.osTimerDelete), (72 bytes).
    Removing cmsis_os2.o(i.osTimerGetName), (30 bytes).
    Removing cmsis_os2.o(i.osTimerIsRunning), (30 bytes).
    Removing cmsis_os2.o(i.osTimerNew), (188 bytes).
    Removing cmsis_os2.o(i.osTimerStart), (60 bytes).
    Removing cmsis_os2.o(i.osTimerStop), (72 bytes).
    Removing heap_4.o(i.vPortGetHeapStats), (128 bytes).
    Removing heap_4.o(i.vPortInitialiseBlocks), (2 bytes).
    Removing heap_4.o(i.xPortGetFreeHeapSize), (12 bytes).
    Removing heap_4.o(i.xPortGetMinimumEverFreeHeapSize), (12 bytes).
    Removing port.o(i.vPortEndScheduler), (48 bytes).

508 unused section(s) (total 32968 bytes) removed from the image.

==============================================================================

Image Symbol Table

    Local Symbols

    Symbol Name                              Value     Ov Type        Size  Object(Section)

    ../Core/Src/freertos.c                   0x00000000   Number         0  freertos.o ABSOLUTE
    ../Core/Src/main.c                       0x00000000   Number         0  main.o ABSOLUTE
    ../Core/Src/stm32f1xx_hal_msp.c          0x00000000   Number         0  stm32f1xx_hal_msp.o ABSOLUTE
    ../Core/Src/stm32f1xx_it.c               0x00000000   Number         0  stm32f1xx_it.o ABSOLUTE
    ../Core/Src/system_stm32f1xx.c           0x00000000   Number         0  system_stm32f1xx.o ABSOLUTE
    ../Drivers/STM32F1xx_HAL_Driver/Src/stm32f1xx_hal.c 0x00000000   Number         0  stm32f1xx_hal.o ABSOLUTE
    ../Drivers/STM32F1xx_HAL_Driver/Src/stm32f1xx_hal_cortex.c 0x00000000   Number         0  stm32f1xx_hal_cortex.o ABSOLUTE
    ../Drivers/STM32F1xx_HAL_Driver/Src/stm32f1xx_hal_dma.c 0x00000000   Number         0  stm32f1xx_hal_dma.o ABSOLUTE
    ../Drivers/STM32F1xx_HAL_Driver/Src/stm32f1xx_hal_exti.c 0x00000000   Number         0  stm32f1xx_hal_exti.o ABSOLUTE
    ../Drivers/STM32F1xx_HAL_Driver/Src/stm32f1xx_hal_flash.c 0x00000000   Number         0  stm32f1xx_hal_flash.o ABSOLUTE
    ../Drivers/STM32F1xx_HAL_Driver/Src/stm32f1xx_hal_flash_ex.c 0x00000000   Number         0  stm32f1xx_hal_flash_ex.o ABSOLUTE
    ../Drivers/STM32F1xx_HAL_Driver/Src/stm32f1xx_hal_gpio.c 0x00000000   Number         0  stm32f1xx_hal_gpio.o ABSOLUTE
    ../Drivers/STM32F1xx_HAL_Driver/Src/stm32f1xx_hal_gpio_ex.c 0x00000000   Number         0  stm32f1xx_hal_gpio_ex.o ABSOLUTE
    ../Drivers/STM32F1xx_HAL_Driver/Src/stm32f1xx_hal_pwr.c 0x00000000   Number         0  stm32f1xx_hal_pwr.o ABSOLUTE
    ../Drivers/STM32F1xx_HAL_Driver/Src/stm32f1xx_hal_rcc.c 0x00000000   Number         0  stm32f1xx_hal_rcc.o ABSOLUTE
    ../Drivers/STM32F1xx_HAL_Driver/Src/stm32f1xx_hal_rcc_ex.c 0x00000000   Number         0  stm32f1xx_hal_rcc_ex.o ABSOLUTE
    ../Drivers/STM32F1xx_HAL_Driver/Src/stm32f1xx_hal_tim.c 0x00000000   Number         0  stm32f1xx_hal_tim.o ABSOLUTE
    ../Drivers/STM32F1xx_HAL_Driver/Src/stm32f1xx_hal_tim_ex.c 0x00000000   Number         0  stm32f1xx_hal_tim_ex.o ABSOLUTE
    ../Drivers/STM32F1xx_HAL_Driver/Src/stm32f1xx_hal_uart.c 0x00000000   Number         0  stm32f1xx_hal_uart.o ABSOLUTE
    ../Middlewares/Third_Party/FreeRTOS/Source/CMSIS_RTOS_V2/cmsis_os2.c 0x00000000   Number         0  cmsis_os2.o ABSOLUTE
    ../Middlewares/Third_Party/FreeRTOS/Source/croutine.c 0x00000000   Number         0  croutine.o ABSOLUTE
    ../Middlewares/Third_Party/FreeRTOS/Source/event_groups.c 0x00000000   Number         0  event_groups.o ABSOLUTE
    ../Middlewares/Third_Party/FreeRTOS/Source/list.c 0x00000000   Number         0  list.o ABSOLUTE
    ../Middlewares/Third_Party/FreeRTOS/Source/portable/MemMang/heap_4.c 0x00000000   Number         0  heap_4.o ABSOLUTE
    ../Middlewares/Third_Party/FreeRTOS/Source/portable/RVDS/ARM_CM3/port.c 0x00000000   Number         0  port.o ABSOLUTE
    ../Middlewares/Third_Party/FreeRTOS/Source/queue.c 0x00000000   Number         0  queue.o ABSOLUTE
    ../Middlewares/Third_Party/FreeRTOS/Source/stream_buffer.c 0x00000000   Number         0  stream_buffer.o ABSOLUTE
    ../Middlewares/Third_Party/FreeRTOS/Source/tasks.c 0x00000000   Number         0  tasks.o ABSOLUTE
    ../Middlewares/Third_Party/FreeRTOS/Source/timers.c 0x00000000   Number         0  timers.o ABSOLUTE
    ../clib/../cmprslib/zerorunl2.c          0x00000000   Number         0  __dczerorl2.o ABSOLUTE
    ../clib/microlib/init/entry.s            0x00000000   Number         0  entry9b.o ABSOLUTE
    ../clib/microlib/init/entry.s            0x00000000   Number         0  entry.o ABSOLUTE
    ../clib/microlib/init/entry.s            0x00000000   Number         0  entry7b.o ABSOLUTE
    ../clib/microlib/init/entry.s            0x00000000   Number         0  entry8a.o ABSOLUTE
    ../clib/microlib/init/entry.s            0x00000000   Number         0  entry8b.o ABSOLUTE
    ../clib/microlib/init/entry.s            0x00000000   Number         0  entry5.o ABSOLUTE
    ../clib/microlib/init/entry.s            0x00000000   Number         0  entry11b.o ABSOLUTE
    ../clib/microlib/init/entry.s            0x00000000   Number         0  entry11a.o ABSOLUTE
    ../clib/microlib/init/entry.s            0x00000000   Number         0  entry10b.o ABSOLUTE
    ../clib/microlib/init/entry.s            0x00000000   Number         0  entry2.o ABSOLUTE
    ../clib/microlib/init/entry.s            0x00000000   Number         0  entry10a.o ABSOLUTE
    ../clib/microlib/init/entry.s            0x00000000   Number         0  entry9a.o ABSOLUTE
    ../clib/microlib/init/entry.s            0x00000000   Number         0  entry7a.o ABSOLUTE
    ../clib/microlib/longlong.c              0x00000000   Number         0  llushr.o ABSOLUTE
    ../clib/microlib/string/memcpy.c         0x00000000   Number         0  memcpya.o ABSOLUTE
    ../clib/microlib/string/memcpy.c         0x00000000   Number         0  memcpyb.o ABSOLUTE
    ../clib/microlib/string/memset.c         0x00000000   Number         0  memseta.o ABSOLUTE
    ../clib/microlib/string/memset.c         0x00000000   Number         0  memset.o ABSOLUTE
    ../clib/microlib/string/strcmp.c         0x00000000   Number         0  strcmp.o ABSOLUTE
    ../clib/microlib/string/strtok.c         0x00000000   Number         0  strtok.o ABSOLUTE
    ../clib/microlib/string/strtok.c         0x00000000   Number         0  strtok_r.o ABSOLUTE
    ..\Core\Src\freertos.c                   0x00000000   Number         0  freertos.o ABSOLUTE
    ..\Core\Src\main.c                       0x00000000   Number         0  main.o ABSOLUTE
    ..\Core\Src\stm32f1xx_hal_msp.c          0x00000000   Number         0  stm32f1xx_hal_msp.o ABSOLUTE
    ..\Core\Src\stm32f1xx_it.c               0x00000000   Number         0  stm32f1xx_it.o ABSOLUTE
    ..\Core\Src\system_stm32f1xx.c           0x00000000   Number         0  system_stm32f1xx.o ABSOLUTE
    ..\Drivers\STM32F1xx_HAL_Driver\Src\stm32f1xx_hal.c 0x00000000   Number         0  stm32f1xx_hal.o ABSOLUTE
    ..\Drivers\STM32F1xx_HAL_Driver\Src\stm32f1xx_hal_cortex.c 0x00000000   Number         0  stm32f1xx_hal_cortex.o ABSOLUTE
    ..\Drivers\STM32F1xx_HAL_Driver\Src\stm32f1xx_hal_dma.c 0x00000000   Number         0  stm32f1xx_hal_dma.o ABSOLUTE
    ..\Drivers\STM32F1xx_HAL_Driver\Src\stm32f1xx_hal_exti.c 0x00000000   Number         0  stm32f1xx_hal_exti.o ABSOLUTE
    ..\Drivers\STM32F1xx_HAL_Driver\Src\stm32f1xx_hal_flash.c 0x00000000   Number         0  stm32f1xx_hal_flash.o ABSOLUTE
    ..\Drivers\STM32F1xx_HAL_Driver\Src\stm32f1xx_hal_flash_ex.c 0x00000000   Number         0  stm32f1xx_hal_flash_ex.o ABSOLUTE
    ..\Drivers\STM32F1xx_HAL_Driver\Src\stm32f1xx_hal_gpio.c 0x00000000   Number         0  stm32f1xx_hal_gpio.o ABSOLUTE
    ..\Drivers\STM32F1xx_HAL_Driver\Src\stm32f1xx_hal_gpio_ex.c 0x00000000   Number         0  stm32f1xx_hal_gpio_ex.o ABSOLUTE
    ..\Drivers\STM32F1xx_HAL_Driver\Src\stm32f1xx_hal_pwr.c 0x00000000   Number         0  stm32f1xx_hal_pwr.o ABSOLUTE
    ..\Drivers\STM32F1xx_HAL_Driver\Src\stm32f1xx_hal_rcc.c 0x00000000   Number         0  stm32f1xx_hal_rcc.o ABSOLUTE
    ..\Drivers\STM32F1xx_HAL_Driver\Src\stm32f1xx_hal_rcc_ex.c 0x00000000   Number         0  stm32f1xx_hal_rcc_ex.o ABSOLUTE
    ..\Drivers\STM32F1xx_HAL_Driver\Src\stm32f1xx_hal_tim.c 0x00000000   Number         0  stm32f1xx_hal_tim.o ABSOLUTE
    ..\Drivers\STM32F1xx_HAL_Driver\Src\stm32f1xx_hal_tim_ex.c 0x00000000   Number         0  stm32f1xx_hal_tim_ex.o ABSOLUTE
    ..\Drivers\STM32F1xx_HAL_Driver\Src\stm32f1xx_hal_uart.c 0x00000000   Number         0  stm32f1xx_hal_uart.o ABSOLUTE
    ..\Middlewares\Third_Party\FreeRTOS\Source\CMSIS_RTOS_V2\cmsis_os2.c 0x00000000   Number         0  cmsis_os2.o ABSOLUTE
    ..\Middlewares\Third_Party\FreeRTOS\Source\portable\RVDS\ARM_CM3\port.c 0x00000000   Number         0  port.o ABSOLUTE
    ..\User\Device\button_device.c           0x00000000   Number         0  button_device.o ABSOLUTE
    ..\User\Device\cmd_interpreter_device.c  0x00000000   Number         0  cmd_interpreter_device.o ABSOLUTE
    ..\User\Device\dht11_device.c            0x00000000   Number         0  dht11_device.o ABSOLUTE
    ..\User\Device\led_device.c              0x00000000   Number         0  led_device.o ABSOLUTE
    ..\User\Device\oled_device.c             0x00000000   Number         0  oled_device.o ABSOLUTE
    ..\User\Device\ring_buffer_device.c      0x00000000   Number         0  ring_buffer_device.o ABSOLUTE
    ..\User\Operation\button_operation.c     0x00000000   Number         0  button_operation.o ABSOLUTE
    ..\User\Operation\cmd_interpreter_operation.c 0x00000000   Number         0  cmd_interpreter_operation.o ABSOLUTE
    ..\User\Operation\dht11_operation.c      0x00000000   Number         0  dht11_operation.o ABSOLUTE
    ..\User\Operation\led_operation.c        0x00000000   Number         0  led_operation.o ABSOLUTE
    ..\User\Operation\oled_operation.c       0x00000000   Number         0  oled_operation.o ABSOLUTE
    ..\User\Operation\uart_operation.c       0x00000000   Number         0  uart_operation.o ABSOLUTE
    ..\User\Task\button_process_task.c       0x00000000   Number         0  button_process_task.o ABSOLUTE
    ..\User\Task\dht11_task.c                0x00000000   Number         0  dht11_task.o ABSOLUTE
    ..\User\Task\led_task.c                  0x00000000   Number         0  led_task.o ABSOLUTE
    ..\User\Task\loop_task.c                 0x00000000   Number         0  loop_task.o ABSOLUTE
    ..\User\Task\oled_task.c                 0x00000000   Number         0  oled_task.o ABSOLUTE
    ..\User\Task\uart_task.c                 0x00000000   Number         0  uart_task.o ABSOLUTE
    ..\User\UiCore\ui_core.c                 0x00000000   Number         0  ui_core.o ABSOLUTE
    ..\User\UiCore\ui_font.c                 0x00000000   Number         0  ui_font.o ABSOLUTE
    ..\User\UiFrame\ui_frame_dht11.c         0x00000000   Number         0  ui_frame_dht11.o ABSOLUTE
    ..\User\UiFrame\ui_frame_led_ctrl.c      0x00000000   Number         0  ui_frame_led_ctrl.o ABSOLUTE
    ..\User\UiFrame\ui_frame_main.c          0x00000000   Number         0  ui_frame_main.o ABSOLUTE
    ..\\User\\Device\\button_device.c        0x00000000   Number         0  button_device.o ABSOLUTE
    ..\\User\\Device\\dht11_device.c         0x00000000   Number         0  dht11_device.o ABSOLUTE
    ..\\User\\Device\\led_device.c           0x00000000   Number         0  led_device.o ABSOLUTE
    ..\\User\\Device\\oled_device.c          0x00000000   Number         0  oled_device.o ABSOLUTE
    ..\\User\\Operation\\button_operation.c  0x00000000   Number         0  button_operation.o ABSOLUTE
    ..\\User\\Operation\\cmd_interpreter_operation.c 0x00000000   Number         0  cmd_interpreter_operation.o ABSOLUTE
    ..\\User\\Operation\\dht11_operation.c   0x00000000   Number         0  dht11_operation.o ABSOLUTE
    ..\\User\\Operation\\led_operation.c     0x00000000   Number         0  led_operation.o ABSOLUTE
    ..\\User\\Operation\\oled_operation.c    0x00000000   Number         0  oled_operation.o ABSOLUTE
    ..\\User\\Operation\\uart_operation.c    0x00000000   Number         0  uart_operation.o ABSOLUTE
    ..\\User\\Task\\dht11_task.c             0x00000000   Number         0  dht11_task.o ABSOLUTE
    ..\\User\\Task\\led_task.c               0x00000000   Number         0  led_task.o ABSOLUTE
    ..\\User\\UiFrame\\ui_frame_dht11.c      0x00000000   Number         0  ui_frame_dht11.o ABSOLUTE
    ..\\User\\UiFrame\\ui_frame_led_ctrl.c   0x00000000   Number         0  ui_frame_led_ctrl.o ABSOLUTE
    ..\\User\\UiFrame\\ui_frame_main.c       0x00000000   Number         0  ui_frame_main.o ABSOLUTE
    dc.s                                     0x00000000   Number         0  dc.o ABSOLUTE
    handlers.s                               0x00000000   Number         0  handlers.o ABSOLUTE
    init.s                                   0x00000000   Number         0  init.o ABSOLUTE
    startup_stm32f103xb.s                    0x00000000   Number         0  startup_stm32f103xb.o ABSOLUTE
    RESET                                    0x08000000   Section      236  startup_stm32f103xb.o(RESET)
    .ARM.Collect$$$$00000000                 0x080000ec   Section        0  entry.o(.ARM.Collect$$$$00000000)
    .ARM.Collect$$$$00000001                 0x080000ec   Section        4  entry2.o(.ARM.Collect$$$$00000001)
    .ARM.Collect$$$$00000004                 0x080000f0   Section        4  entry5.o(.ARM.Collect$$$$00000004)
    .ARM.Collect$$$$00000008                 0x080000f4   Section        0  entry7b.o(.ARM.Collect$$$$00000008)
    .ARM.Collect$$$$0000000A                 0x080000f4   Section        0  entry8b.o(.ARM.Collect$$$$0000000A)
    .ARM.Collect$$$$0000000B                 0x080000f4   Section        8  entry9a.o(.ARM.Collect$$$$0000000B)
    .ARM.Collect$$$$0000000D                 0x080000fc   Section        0  entry10a.o(.ARM.Collect$$$$0000000D)
    .ARM.Collect$$$$0000000F                 0x080000fc   Section        0  entry11a.o(.ARM.Collect$$$$0000000F)
    .ARM.Collect$$$$00002712                 0x080000fc   Section        4  entry2.o(.ARM.Collect$$$$00002712)
    __lit__00000000                          0x080000fc   Data           4  entry2.o(.ARM.Collect$$$$00002712)
    .emb_text                                0x08000100   Section      150  port.o(.emb_text)
    .text                                    0x08000198   Section       36  startup_stm32f103xb.o(.text)
    .text                                    0x080001bc   Section        0  memcpya.o(.text)
    .text                                    0x080001e0   Section        0  memseta.o(.text)
    .text                                    0x08000204   Section        0  strcmp.o(.text)
    .text                                    0x08000220   Section        0  strtok.o(.text)
    .text                                    0x08000264   Section       36  init.o(.text)
    .text                                    0x08000288   Section        0  __dczerorl2.o(.text)
    i.BusFault_Handler                       0x080002de   Section        0  stm32f1xx_it.o(i.BusFault_Handler)
    i.CmdSendString                          0x080002e4   Section        0  cmd_interpreter_operation.o(i.CmdSendString)
    i.DebugMon_Handler                       0x080002fc   Section        0  stm32f1xx_it.o(i.DebugMon_Handler)
    i.Error_Handler                          0x080002fe   Section        0  main.o(i.Error_Handler)
    i.HAL_GPIO_Init                          0x08000304   Section        0  stm32f1xx_hal_gpio.o(i.HAL_GPIO_Init)
    i.HAL_GPIO_ReadPin                       0x08000624   Section        0  stm32f1xx_hal_gpio.o(i.HAL_GPIO_ReadPin)
    i.HAL_GPIO_WritePin                      0x08000634   Section        0  stm32f1xx_hal_gpio.o(i.HAL_GPIO_WritePin)
    i.HAL_GetTick                            0x08000640   Section        0  stm32f1xx_hal.o(i.HAL_GetTick)
    i.HAL_IncTick                            0x0800064c   Section        0  stm32f1xx_hal.o(i.HAL_IncTick)
    i.HAL_Init                               0x08000664   Section        0  stm32f1xx_hal.o(i.HAL_Init)
    i.HAL_InitTick                           0x0800068c   Section        0  stm32f1xx_hal.o(i.HAL_InitTick)
    i.HAL_MspInit                            0x080006d8   Section        0  stm32f1xx_hal_msp.o(i.HAL_MspInit)
    i.HAL_NVIC_EnableIRQ                     0x08000738   Section        0  stm32f1xx_hal_cortex.o(i.HAL_NVIC_EnableIRQ)
    i.HAL_NVIC_SetPriority                   0x08000758   Section        0  stm32f1xx_hal_cortex.o(i.HAL_NVIC_SetPriority)
    i.HAL_NVIC_SetPriorityGrouping           0x080007d4   Section        0  stm32f1xx_hal_cortex.o(i.HAL_NVIC_SetPriorityGrouping)
    i.HAL_RCC_ClockConfig                    0x080007fc   Section        0  stm32f1xx_hal_rcc.o(i.HAL_RCC_ClockConfig)
    i.HAL_RCC_GetHCLKFreq                    0x08000988   Section        0  stm32f1xx_hal_rcc.o(i.HAL_RCC_GetHCLKFreq)
    i.HAL_RCC_GetPCLK1Freq                   0x08000994   Section        0  stm32f1xx_hal_rcc.o(i.HAL_RCC_GetPCLK1Freq)
    i.HAL_RCC_GetPCLK2Freq                   0x080009b4   Section        0  stm32f1xx_hal_rcc.o(i.HAL_RCC_GetPCLK2Freq)
    i.HAL_RCC_GetSysClockFreq                0x080009d4   Section        0  stm32f1xx_hal_rcc.o(i.HAL_RCC_GetSysClockFreq)
    i.HAL_RCC_OscConfig                      0x08000a44   Section        0  stm32f1xx_hal_rcc.o(i.HAL_RCC_OscConfig)
    i.HAL_SYSTICK_Config                     0x08000ea8   Section        0  stm32f1xx_hal_cortex.o(i.HAL_SYSTICK_Config)
    i.HAL_UART_Init                          0x08000edc   Section        0  stm32f1xx_hal_uart.o(i.HAL_UART_Init)
    i.HAL_UART_MspInit                       0x08000f54   Section        0  stm32f1xx_hal_msp.o(i.HAL_UART_MspInit)
    i.HAL_UART_Transmit                      0x08000fec   Section        0  stm32f1xx_hal_uart.o(i.HAL_UART_Transmit)
    i.HardFault_Handler                      0x080010aa   Section        0  stm32f1xx_it.o(i.HardFault_Handler)
    i.MX_GPIO_Init                           0x080010b0   Section        0  main.o(i.MX_GPIO_Init)
    MX_GPIO_Init                             0x080010b1   Thumb Code   298  main.o(i.MX_GPIO_Init)
    i.MX_USART1_UART_Init                    0x080011ec   Section        0  main.o(i.MX_USART1_UART_Init)
    MX_USART1_UART_Init                      0x080011ed   Thumb Code    46  main.o(i.MX_USART1_UART_Init)
    i.MemManage_Handler                      0x08001224   Section        0  stm32f1xx_it.o(i.MemManage_Handler)
    i.NMI_Handler                            0x08001228   Section        0  stm32f1xx_it.o(i.NMI_Handler)
    i.RCC_Delay                              0x0800122c   Section        0  stm32f1xx_hal_rcc.o(i.RCC_Delay)
    RCC_Delay                                0x0800122d   Thumb Code    36  stm32f1xx_hal_rcc.o(i.RCC_Delay)
    i.SysTick_Handler                        0x08001254   Section        0  stm32f1xx_it.o(i.SysTick_Handler)
    i.SystemClock_Config                     0x08001268   Section        0  main.o(i.SystemClock_Config)
    i.SystemInit                             0x080012ce   Section        0  system_stm32f1xx.o(i.SystemInit)
    i.UART_EndRxTransfer                     0x080012d0   Section        0  stm32f1xx_hal_uart.o(i.UART_EndRxTransfer)
    UART_EndRxTransfer                       0x080012d1   Thumb Code   108  stm32f1xx_hal_uart.o(i.UART_EndRxTransfer)
    i.UART_SetConfig                         0x0800133c   Section        0  stm32f1xx_hal_uart.o(i.UART_SetConfig)
    UART_SetConfig                           0x0800133d   Thumb Code   248  stm32f1xx_hal_uart.o(i.UART_SetConfig)
    i.UART_WaitOnFlagUntilTimeout            0x08001438   Section        0  stm32f1xx_hal_uart.o(i.UART_WaitOnFlagUntilTimeout)
    UART_WaitOnFlagUntilTimeout              0x08001439   Thumb Code   140  stm32f1xx_hal_uart.o(i.UART_WaitOnFlagUntilTimeout)
    i.USART1_IRQHandler                      0x080014c4   Section        0  stm32f1xx_it.o(i.USART1_IRQHandler)
    i.UsageFault_Handler                     0x080014cc   Section        0  stm32f1xx_it.o(i.UsageFault_Handler)
    i.__NVIC_GetPriorityGrouping             0x080014d0   Section        0  stm32f1xx_hal_cortex.o(i.__NVIC_GetPriorityGrouping)
    __NVIC_GetPriorityGrouping               0x080014d1   Thumb Code    10  stm32f1xx_hal_cortex.o(i.__NVIC_GetPriorityGrouping)
    i.__NVIC_SetPriority                     0x080014e0   Section        0  stm32f1xx_hal_cortex.o(i.__NVIC_SetPriority)
    __NVIC_SetPriority                       0x080014e1   Thumb Code    32  stm32f1xx_hal_cortex.o(i.__NVIC_SetPriority)
    i.__get_IPSR                             0x08001508   Section        0  cmsis_os2.o(i.__get_IPSR)
    __get_IPSR                               0x08001509   Thumb Code     6  cmsis_os2.o(i.__get_IPSR)
    i.__scatterload_copy                     0x0800150e   Section       14  handlers.o(i.__scatterload_copy)
    i.__scatterload_null                     0x0800151c   Section        2  handlers.o(i.__scatterload_null)
    i.__scatterload_zeroinit                 0x0800151e   Section       14  handlers.o(i.__scatterload_zeroinit)
    i.c_pstDht11GetRunningParam              0x0800152c   Section        0  dht11_device.o(i.c_pstDht11GetRunningParam)
    i.c_pstGetLedRunningParam                0x08001540   Section        0  led_device.o(i.c_pstGetLedRunningParam)
    i.c_pstRingBufferGetRunningParam         0x08001554   Section        0  ring_buffer_device.o(i.c_pstRingBufferGetRunningParam)
    i.c_pstRingBufferGetStaticParam          0x08001568   Section        0  ring_buffer_device.o(i.c_pstRingBufferGetStaticParam)
    i.c_pucUiGetFrameBuffer                  0x0800157c   Section        0  ui_core.o(i.c_pucUiGetFrameBuffer)
    i.emButtonDeviceInit                     0x08001584   Section        0  button_device.o(i.emButtonDeviceInit)
    i.emButtonGetEvent                       0x080015d4   Section        0  button_device.o(i.emButtonGetEvent)
    i.emCmdInterpreterDevInit                0x08001600   Section        0  cmd_interpreter_device.o(i.emCmdInterpreterDevInit)
    i.emCmdInterpreterExecute                0x08001614   Section        0  cmd_interpreter_device.o(i.emCmdInterpreterExecute)
    i.emDht11DevInit                         0x0800170c   Section        0  dht11_device.o(i.emDht11DevInit)
    i.emLedDeviceInit                        0x0800171e   Section        0  led_device.o(i.emLedDeviceInit)
    i.emRingBufferDevInit                    0x08001730   Section        0  ring_buffer_device.o(i.emRingBufferDevInit)
    i.emRingBufferReadSingleElement          0x08001758   Section        0  ring_buffer_device.o(i.emRingBufferReadSingleElement)
    i.emRingBufferWriteSingleElement         0x0800181c   Section        0  ring_buffer_device.o(i.emRingBufferWriteSingleElement)
    i.main                                   0x080018e0   Section        0  main.o(i.main)
    i.osDelay                                0x080019cc   Section        0  cmsis_os2.o(i.osDelay)
    i.osKernelInitialize                     0x080019ec   Section        0  cmsis_os2.o(i.osKernelInitialize)
    i.osKernelStart                          0x08001a18   Section        0  cmsis_os2.o(i.osKernelStart)
    i.osThreadNew                            0x08001a78   Section        0  cmsis_os2.o(i.osThreadNew)
    i.prvAddCurrentTaskToDelayedList         0x08001b30   Section        0  tasks.o(i.prvAddCurrentTaskToDelayedList)
    prvAddCurrentTaskToDelayedList           0x08001b31   Thumb Code   100  tasks.o(i.prvAddCurrentTaskToDelayedList)
    i.prvAddNewTaskToReadyList               0x08001bac   Section        0  tasks.o(i.prvAddNewTaskToReadyList)
    prvAddNewTaskToReadyList                 0x08001bad   Thumb Code   154  tasks.o(i.prvAddNewTaskToReadyList)
    i.prvCheckForValidListAndQueue           0x08001c64   Section        0  timers.o(i.prvCheckForValidListAndQueue)
    prvCheckForValidListAndQueue             0x08001c65   Thumb Code    78  timers.o(i.prvCheckForValidListAndQueue)
    i.prvCheckTasksWaitingTermination        0x08001cd8   Section        0  tasks.o(i.prvCheckTasksWaitingTermination)
    prvCheckTasksWaitingTermination          0x08001cd9   Thumb Code    60  tasks.o(i.prvCheckTasksWaitingTermination)
    i.prvCopyDataFromQueue                   0x08001d20   Section        0  queue.o(i.prvCopyDataFromQueue)
    prvCopyDataFromQueue                     0x08001d21   Thumb Code    42  queue.o(i.prvCopyDataFromQueue)
    i.prvCopyDataToQueue                     0x08001d4a   Section        0  queue.o(i.prvCopyDataToQueue)
    prvCopyDataToQueue                       0x08001d4b   Thumb Code   126  queue.o(i.prvCopyDataToQueue)
    i.prvDeleteTCB                           0x08001dc8   Section        0  tasks.o(i.prvDeleteTCB)
    prvDeleteTCB                             0x08001dc9   Thumb Code    80  tasks.o(i.prvDeleteTCB)
    i.prvGetNextExpireTime                   0x08001e18   Section        0  timers.o(i.prvGetNextExpireTime)
    prvGetNextExpireTime                     0x08001e19   Thumb Code    36  timers.o(i.prvGetNextExpireTime)
    i.prvHeapInit                            0x08001e40   Section        0  heap_4.o(i.prvHeapInit)
    prvHeapInit                              0x08001e41   Thumb Code    98  heap_4.o(i.prvHeapInit)
    i.prvIdleTask                            0x08001ebc   Section        0  tasks.o(i.prvIdleTask)
    prvIdleTask                              0x08001ebd   Thumb Code    32  tasks.o(i.prvIdleTask)
    i.prvInitialiseNewQueue                  0x08001ee4   Section        0  queue.o(i.prvInitialiseNewQueue)
    prvInitialiseNewQueue                    0x08001ee5   Thumb Code    42  queue.o(i.prvInitialiseNewQueue)
    i.prvInitialiseNewTask                   0x08001f0e   Section        0  tasks.o(i.prvInitialiseNewTask)
    prvInitialiseNewTask                     0x08001f0f   Thumb Code   190  tasks.o(i.prvInitialiseNewTask)
    i.prvInitialiseTaskLists                 0x08001fcc   Section        0  tasks.o(i.prvInitialiseTaskLists)
    prvInitialiseTaskLists                   0x08001fcd   Thumb Code    70  tasks.o(i.prvInitialiseTaskLists)
    i.prvInsertBlockIntoFreeList             0x08002034   Section        0  heap_4.o(i.prvInsertBlockIntoFreeList)
    prvInsertBlockIntoFreeList               0x08002035   Thumb Code    96  heap_4.o(i.prvInsertBlockIntoFreeList)
    i.prvInsertTimerInActiveList             0x0800209c   Section        0  timers.o(i.prvInsertTimerInActiveList)
    prvInsertTimerInActiveList               0x0800209d   Thumb Code    80  timers.o(i.prvInsertTimerInActiveList)
    i.prvIsQueueEmpty                        0x080020f4   Section        0  queue.o(i.prvIsQueueEmpty)
    prvIsQueueEmpty                          0x080020f5   Thumb Code    26  queue.o(i.prvIsQueueEmpty)
    i.prvIsQueueFull                         0x0800210e   Section        0  queue.o(i.prvIsQueueFull)
    prvIsQueueFull                           0x0800210f   Thumb Code    30  queue.o(i.prvIsQueueFull)
    i.prvProcessExpiredTimer                 0x0800212c   Section        0  timers.o(i.prvProcessExpiredTimer)
    prvProcessExpiredTimer                   0x0800212d   Thumb Code   110  timers.o(i.prvProcessExpiredTimer)
    i.prvProcessReceivedCommands             0x080021a0   Section        0  timers.o(i.prvProcessReceivedCommands)
    prvProcessReceivedCommands               0x080021a1   Thumb Code   350  timers.o(i.prvProcessReceivedCommands)
    i.prvProcessTimerOrBlockTask             0x08002304   Section        0  timers.o(i.prvProcessTimerOrBlockTask)
    prvProcessTimerOrBlockTask               0x08002305   Thumb Code   102  timers.o(i.prvProcessTimerOrBlockTask)
    i.prvResetNextTaskUnblockTime            0x08002378   Section        0  tasks.o(i.prvResetNextTaskUnblockTime)
    prvResetNextTaskUnblockTime              0x08002379   Thumb Code    42  tasks.o(i.prvResetNextTaskUnblockTime)
    i.prvSampleTimeNow                       0x080023ac   Section        0  timers.o(i.prvSampleTimeNow)
    prvSampleTimeNow                         0x080023ad   Thumb Code    40  timers.o(i.prvSampleTimeNow)
    i.prvSwitchTimerLists                    0x080023d8   Section        0  timers.o(i.prvSwitchTimerLists)
    prvSwitchTimerLists                      0x080023d9   Thumb Code   154  timers.o(i.prvSwitchTimerLists)
    i.prvTaskExitError                       0x0800247c   Section        0  port.o(i.prvTaskExitError)
    prvTaskExitError                         0x0800247d   Thumb Code    60  port.o(i.prvTaskExitError)
    i.prvTimerTask                           0x080024bc   Section        0  timers.o(i.prvTimerTask)
    prvTimerTask                             0x080024bd   Thumb Code    26  timers.o(i.prvTimerTask)
    i.prvUnlockQueue                         0x080024d6   Section        0  queue.o(i.prvUnlockQueue)
    prvUnlockQueue                           0x080024d7   Thumb Code   126  queue.o(i.prvUnlockQueue)
    i.pstGetDht11Frame                       0x08002554   Section        0  ui_frame_dht11.o(i.pstGetDht11Frame)
    i.pstGetLedCtrlFrame                     0x0800255c   Section        0  ui_frame_led_ctrl.o(i.pstGetLedCtrlFrame)
    i.pstGetMainFrame                        0x08002564   Section        0  ui_frame_main.o(i.pstGetMainFrame)
    i.pvPortMalloc                           0x0800256c   Section        0  heap_4.o(i.pvPortMalloc)
    i.pxPortInitialiseStack                  0x080026b8   Section        0  port.o(i.pxPortInitialiseStack)
    i.sGetAverageWithoutMaxAndMin            0x080026dc   Section        0  dht11_operation.o(i.sGetAverageWithoutMaxAndMin)
    i.s_ucReadButtonRawLevel                 0x0800275c   Section        0  button_device.o(i.s_ucReadButtonRawLevel)
    s_ucReadButtonRawLevel                   0x0800275d   Thumb Code    30  button_device.o(i.s_ucReadButtonRawLevel)
    i.s_vButtonStaticParamCopy               0x08002780   Section        0  button_device.o(i.s_vButtonStaticParamCopy)
    s_vButtonStaticParamCopy                 0x08002781   Thumb Code    20  button_device.o(i.s_vButtonStaticParamCopy)
    i.s_vCmdInterpreterStaticParamCopy       0x08002798   Section        0  cmd_interpreter_device.o(i.s_vCmdInterpreterStaticParamCopy)
    s_vCmdInterpreterStaticParamCopy         0x08002799   Thumb Code    20  cmd_interpreter_device.o(i.s_vCmdInterpreterStaticParamCopy)
    i.s_vDelayUs                             0x080027b0   Section        0  dht11_device.o(i.s_vDelayUs)
    s_vDelayUs                               0x080027b1   Thumb Code    22  dht11_device.o(i.s_vDelayUs)
    i.s_vDht11FrameButtonEnterExecute        0x080027c8   Section        0  ui_frame_dht11.o(i.s_vDht11FrameButtonEnterExecute)
    s_vDht11FrameButtonEnterExecute          0x080027c9   Thumb Code    22  ui_frame_dht11.o(i.s_vDht11FrameButtonEnterExecute)
    i.s_vDht11FrameCallback                  0x080027e4   Section        0  ui_frame_dht11.o(i.s_vDht11FrameCallback)
    s_vDht11FrameCallback                    0x080027e5   Thumb Code    52  ui_frame_dht11.o(i.s_vDht11FrameCallback)
    i.s_vDht11InitParamCopy                  0x08002818   Section        0  dht11_device.o(i.s_vDht11InitParamCopy)
    s_vDht11InitParamCopy                    0x08002819   Thumb Code    20  dht11_device.o(i.s_vDht11InitParamCopy)
    i.s_vLedCtrlFrameButtonCancelExecute     0x08002830   Section        0  ui_frame_led_ctrl.o(i.s_vLedCtrlFrameButtonCancelExecute)
    s_vLedCtrlFrameButtonCancelExecute       0x08002831   Thumb Code    34  ui_frame_led_ctrl.o(i.s_vLedCtrlFrameButtonCancelExecute)
    i.s_vLedCtrlFrameButtonDownExecute       0x08002860   Section        0  ui_frame_led_ctrl.o(i.s_vLedCtrlFrameButtonDownExecute)
    s_vLedCtrlFrameButtonDownExecute         0x08002861   Thumb Code    38  ui_frame_led_ctrl.o(i.s_vLedCtrlFrameButtonDownExecute)
    i.s_vLedCtrlFrameButtonEnterExecute      0x08002894   Section        0  ui_frame_led_ctrl.o(i.s_vLedCtrlFrameButtonEnterExecute)
    s_vLedCtrlFrameButtonEnterExecute        0x08002895   Thumb Code    58  ui_frame_led_ctrl.o(i.s_vLedCtrlFrameButtonEnterExecute)
    i.s_vLedCtrlFrameButtonUpExecute         0x080028d8   Section        0  ui_frame_led_ctrl.o(i.s_vLedCtrlFrameButtonUpExecute)
    s_vLedCtrlFrameButtonUpExecute           0x080028d9   Thumb Code    38  ui_frame_led_ctrl.o(i.s_vLedCtrlFrameButtonUpExecute)
    i.s_vLedCtrlFrameCallback                0x0800290c   Section        0  ui_frame_led_ctrl.o(i.s_vLedCtrlFrameCallback)
    s_vLedCtrlFrameCallback                  0x0800290d   Thumb Code    96  ui_frame_led_ctrl.o(i.s_vLedCtrlFrameCallback)
    i.s_vLedStaticParamCopy                  0x08002974   Section        0  led_device.o(i.s_vLedStaticParamCopy)
    s_vLedStaticParamCopy                    0x08002975   Thumb Code    20  led_device.o(i.s_vLedStaticParamCopy)
    i.s_vMainFrameButtonEnterExecute         0x0800298c   Section        0  ui_frame_main.o(i.s_vMainFrameButtonEnterExecute)
    s_vMainFrameButtonEnterExecute           0x0800298d   Thumb Code    46  ui_frame_main.o(i.s_vMainFrameButtonEnterExecute)
    i.s_vMainFrameCallback                   0x080029c4   Section        0  ui_frame_main.o(i.s_vMainFrameCallback)
    s_vMainFrameCallback                     0x080029c5   Thumb Code    76  ui_frame_main.o(i.s_vMainFrameCallback)
    i.s_vOledIicSendByte                     0x08002a14   Section        0  oled_device.o(i.s_vOledIicSendByte)
    s_vOledIicSendByte                       0x08002a15   Thumb Code   166  oled_device.o(i.s_vOledIicSendByte)
    i.s_vOledIicStart                        0x08002ac0   Section        0  oled_device.o(i.s_vOledIicStart)
    s_vOledIicStart                          0x08002ac1   Thumb Code   114  oled_device.o(i.s_vOledIicStart)
    i.s_vOledIicStop                         0x08002b38   Section        0  oled_device.o(i.s_vOledIicStop)
    s_vOledIicStop                           0x08002b39   Thumb Code    88  oled_device.o(i.s_vOledIicStop)
    i.s_vOledIicWaitAck                      0x08002b94   Section        0  oled_device.o(i.s_vOledIicWaitAck)
    s_vOledIicWaitAck                        0x08002b95   Thumb Code    58  oled_device.o(i.s_vOledIicWaitAck)
    i.s_vOledStaticParamInit                 0x08002bd4   Section        0  oled_device.o(i.s_vOledStaticParamInit)
    s_vOledStaticParamInit                   0x08002bd5   Thumb Code    20  oled_device.o(i.s_vOledStaticParamInit)
    i.s_vOledWriteOneByteCmd                 0x08002bec   Section        0  oled_device.o(i.s_vOledWriteOneByteCmd)
    s_vOledWriteOneByteCmd                   0x08002bed   Thumb Code    62  oled_device.o(i.s_vOledWriteOneByteCmd)
    i.s_vOledWriteOneByteData                0x08002c2a   Section        0  oled_device.o(i.s_vOledWriteOneByteData)
    s_vOledWriteOneByteData                  0x08002c2b   Thumb Code    62  oled_device.o(i.s_vOledWriteOneByteData)
    i.s_vRingBufferRunningParamInit          0x08002c68   Section        0  ring_buffer_device.o(i.s_vRingBufferRunningParamInit)
    s_vRingBufferRunningParamInit            0x08002c69   Thumb Code    56  ring_buffer_device.o(i.s_vRingBufferRunningParamInit)
    i.s_vRingBufferStaticParamCopy           0x08002ca4   Section        0  ring_buffer_device.o(i.s_vRingBufferStaticParamCopy)
    s_vRingBufferStaticParamCopy             0x08002ca5   Thumb Code    20  ring_buffer_device.o(i.s_vRingBufferStaticParamCopy)
    i.s_vUiClearOnePointToBuffer             0x08002cbc   Section        0  ui_core.o(i.s_vUiClearOnePointToBuffer)
    s_vUiClearOnePointToBuffer               0x08002cbd   Thumb Code    34  ui_core.o(i.s_vUiClearOnePointToBuffer)
    i.s_vUiDrawOnePointToBuffer              0x08002ce4   Section        0  ui_core.o(i.s_vUiDrawOnePointToBuffer)
    s_vUiDrawOnePointToBuffer                0x08002ce5   Thumb Code    34  ui_core.o(i.s_vUiDrawOnePointToBuffer)
    i.s_vUiWriteOneCharToBuffer              0x08002d0c   Section        0  ui_core.o(i.s_vUiWriteOneCharToBuffer)
    s_vUiWriteOneCharToBuffer                0x08002d0d   Thumb Code   240  ui_core.o(i.s_vUiWriteOneCharToBuffer)
    i.s_vUiWriteStringToBuffer               0x08002e08   Section        0  ui_core.o(i.s_vUiWriteStringToBuffer)
    s_vUiWriteStringToBuffer                 0x08002e09   Thumb Code    72  ui_core.o(i.s_vUiWriteStringToBuffer)
    i.s_vUpdateFrameToFrameBuffer            0x08002e50   Section        0  ui_core.o(i.s_vUpdateFrameToFrameBuffer)
    s_vUpdateFrameToFrameBuffer              0x08002e51   Thumb Code    22  ui_core.o(i.s_vUpdateFrameToFrameBuffer)
    i.s_vUpdateMenuBoxToFrameBuffer          0x08002e66   Section        0  ui_core.o(i.s_vUpdateMenuBoxToFrameBuffer)
    s_vUpdateMenuBoxToFrameBuffer            0x08002e67   Thumb Code   124  ui_core.o(i.s_vUpdateMenuBoxToFrameBuffer)
    i.s_vUpdateTextBoxToFrameBuffer          0x08002ee2   Section        0  ui_core.o(i.s_vUpdateTextBoxToFrameBuffer)
    s_vUpdateTextBoxToFrameBuffer            0x08002ee3   Thumb Code    24  ui_core.o(i.s_vUpdateTextBoxToFrameBuffer)
    i.s_vUpdateWidgetToFrameBuffer           0x08002efa   Section        0  ui_core.o(i.s_vUpdateWidgetToFrameBuffer)
    s_vUpdateWidgetToFrameBuffer             0x08002efb   Thumb Code    46  ui_core.o(i.s_vUpdateWidgetToFrameBuffer)
    i.ucDht11ReadBit                         0x08002f28   Section        0  dht11_device.o(i.ucDht11ReadBit)
    i.ucDht11ReadData                        0x08002fb4   Section        0  dht11_device.o(i.ucDht11ReadData)
    i.ucDht11WaitForAck                      0x0800308c   Section        0  dht11_device.o(i.ucDht11WaitForAck)
    i.ulButtonGetEvents                      0x08003140   Section        0  button_device.o(i.ulButtonGetEvents)
    i.ulStringToUint32                       0x08003178   Section        0  cmd_interpreter_operation.o(i.ulStringToUint32)
    i.uxListRemove                           0x0800319a   Section        0  list.o(i.uxListRemove)
    i.vApplicationGetIdleTaskMemory          0x080031c4   Section        0  cmsis_os2.o(i.vApplicationGetIdleTaskMemory)
    i.vApplicationGetTimerTaskMemory         0x080031dc   Section        0  cmsis_os2.o(i.vApplicationGetTimerTaskMemory)
    i.vButtonInit                            0x080031f4   Section        0  button_operation.o(i.vButtonInit)
    i.vButtonProcessTask                     0x0800327c   Section        0  button_process_task.o(i.vButtonProcessTask)
    i.vButtonRefreshStatus                   0x080032c0   Section        0  button_device.o(i.vButtonRefreshStatus)
    i.vButtonScan                            0x08003338   Section        0  button_operation.o(i.vButtonScan)
    i.vButtonValueProcess                    0x0800335c   Section        0  button_operation.o(i.vButtonValueProcess)
    i.vClearFrameBuffer                      0x08003370   Section        0  ui_core.o(i.vClearFrameBuffer)
    i.vCmdInterpreterExecuteCallback_LedBlink_ParamNum2 0x08003390   Section        0  cmd_interpreter_operation.o(i.vCmdInterpreterExecuteCallback_LedBlink_ParamNum2)
    i.vCmdInterpreterExecuteCallback_LedBlink_ParamNum3 0x080033f4   Section        0  cmd_interpreter_operation.o(i.vCmdInterpreterExecuteCallback_LedBlink_ParamNum3)
    i.vCmdInterpreterExecuteCallback_LedOff  0x08003458   Section        0  cmd_interpreter_operation.o(i.vCmdInterpreterExecuteCallback_LedOff)
    i.vCmdInterpreterExecuteCallback_LedOn   0x080034a8   Section        0  cmd_interpreter_operation.o(i.vCmdInterpreterExecuteCallback_LedOn)
    i.vCmdInterpreterExecuteCallback_LedToggle 0x080034f8   Section        0  cmd_interpreter_operation.o(i.vCmdInterpreterExecuteCallback_LedToggle)
    i.vCmdInterpreterInit                    0x0800355c   Section        0  cmd_interpreter_operation.o(i.vCmdInterpreterInit)
    i.vCmdInterpreterOperationExecute        0x08003574   Section        0  cmd_interpreter_operation.o(i.vCmdInterpreterOperationExecute)
    i.vDht11FrameInit                        0x08003584   Section        0  ui_frame_dht11.o(i.vDht11FrameInit)
    i.vDht11FrameUpdateHumidityValue         0x080035c8   Section        0  ui_frame_dht11.o(i.vDht11FrameUpdateHumidityValue)
    i.vDht11FrameUpdateTemperatureValue      0x0800362c   Section        0  ui_frame_dht11.o(i.vDht11FrameUpdateTemperatureValue)
    i.vDht11Init                             0x08003690   Section        0  dht11_operation.o(i.vDht11Init)
    i.vDht11RefreshData                      0x080036a8   Section        0  dht11_operation.o(i.vDht11RefreshData)
    i.vDht11SetPinDirInput                   0x08003760   Section        0  dht11_device.o(i.vDht11SetPinDirInput)
    i.vDht11SetPinDirOutput                  0x08003794   Section        0  dht11_device.o(i.vDht11SetPinDirOutput)
    i.vDht11Start                            0x080037c4   Section        0  dht11_device.o(i.vDht11Start)
    i.vDht11Task                             0x080037e8   Section        0  dht11_task.o(i.vDht11Task)
    i.vDht11WritePinHigh                     0x080037fc   Section        0  dht11_device.o(i.vDht11WritePinHigh)
    i.vDht11WritePinLow                      0x08003824   Section        0  dht11_device.o(i.vDht11WritePinLow)
    i.vLedCtrlFrameInit                      0x0800384c   Section        0  ui_frame_led_ctrl.o(i.vLedCtrlFrameInit)
    i.vLedCtrlRequestLedOff                  0x08003890   Section        0  ui_frame_led_ctrl.o(i.vLedCtrlRequestLedOff)
    i.vLedCtrlRequestLedOn                   0x080038c8   Section        0  ui_frame_led_ctrl.o(i.vLedCtrlRequestLedOn)
    i.vLedExecute                            0x08003900   Section        0  led_device.o(i.vLedExecute)
    i.vLedInit                               0x080039b0   Section        0  led_operation.o(i.vLedInit)
    i.vLedOperationExecute                   0x08003bac   Section        0  led_operation.o(i.vLedOperationExecute)
    i.vLedOperationParamUpdate               0x08003bc2   Section        0  led_operation.o(i.vLedOperationParamUpdate)
    i.vLedRefreshOutputLevel                 0x08003bd0   Section        0  led_device.o(i.vLedRefreshOutputLevel)
    i.vLedSetRunningParam                    0x08003c18   Section        0  led_device.o(i.vLedSetRunningParam)
    i.vLedTask                               0x08003c8c   Section        0  led_task.o(i.vLedTask)
    i.vListInitialise                        0x08003cc8   Section        0  list.o(i.vListInitialise)
    i.vListInitialiseItem                    0x08003ce2   Section        0  list.o(i.vListInitialiseItem)
    i.vListInsert                            0x08003ce8   Section        0  list.o(i.vListInsert)
    i.vListInsertEnd                         0x08003d1c   Section        0  list.o(i.vListInsertEnd)
    i.vLoopTask                              0x08003d34   Section        0  loop_task.o(i.vLoopTask)
    i.vMainFrameInit                         0x08003d48   Section        0  ui_frame_main.o(i.vMainFrameInit)
    i.vOledCmdInit                           0x08003d68   Section        0  oled_device.o(i.vOledCmdInit)
    i.vOledDeviceInit                        0x08003e4e   Section        0  oled_device.o(i.vOledDeviceInit)
    i.vOledExecuteCurrentFrameCallback       0x08003e64   Section        0  oled_operation.o(i.vOledExecuteCurrentFrameCallback)
    i.vOledInit                              0x08003e78   Section        0  oled_operation.o(i.vOledInit)
    i.vOledRefreshCurrentFrame               0x08003e9c   Section        0  oled_operation.o(i.vOledRefreshCurrentFrame)
    i.vOledRefreshFromBuffer                 0x08003eb8   Section        0  oled_device.o(i.vOledRefreshFromBuffer)
    i.vOledTask                              0x08003f0c   Section        0  oled_task.o(i.vOledTask)
    i.vPortEnterCritical                     0x08003f50   Section        0  port.o(i.vPortEnterCritical)
    i.vPortExitCritical                      0x08003fa4   Section        0  port.o(i.vPortExitCritical)
    i.vPortFree                              0x08003fe0   Section        0  heap_4.o(i.vPortFree)
    i.vPortSetupTimerInterrupt               0x08004084   Section        0  port.o(i.vPortSetupTimerInterrupt)
    i.vPortValidateInterruptPriority         0x080040ac   Section        0  port.o(i.vPortValidateInterruptPriority)
    i.vQueueAddToRegistry                    0x08004124   Section        0  queue.o(i.vQueueAddToRegistry)
    i.vQueueWaitForMessageRestricted         0x08004150   Section        0  queue.o(i.vQueueWaitForMessageRestricted)
    i.vTaskDelay                             0x0800419c   Section        0  tasks.o(i.vTaskDelay)
    i.vTaskInternalSetTimeOutState           0x080041f8   Section        0  tasks.o(i.vTaskInternalSetTimeOutState)
    i.vTaskMissedYield                       0x08004210   Section        0  tasks.o(i.vTaskMissedYield)
    i.vTaskPlaceOnEventList                  0x0800421c   Section        0  tasks.o(i.vTaskPlaceOnEventList)
    i.vTaskPlaceOnEventListRestricted        0x08004254   Section        0  tasks.o(i.vTaskPlaceOnEventListRestricted)
    i.vTaskStartScheduler                    0x08004294   Section        0  tasks.o(i.vTaskStartScheduler)
    i.vTaskSuspendAll                        0x0800434c   Section        0  tasks.o(i.vTaskSuspendAll)
    i.vTaskSwitchContext                     0x0800435c   Section        0  tasks.o(i.vTaskSwitchContext)
    i.vUart1InterruptCallback                0x080043ec   Section        0  uart_operation.o(i.vUart1InterruptCallback)
    i.vUartCmdInterpreterTask                0x08004424   Section        0  uart_task.o(i.vUartCmdInterpreterTask)
    i.vUartGetCmdLine                        0x0800444c   Section        0  uart_operation.o(i.vUartGetCmdLine)
    i.vUartInit                              0x080044c8   Section        0  uart_operation.o(i.vUartInit)
    i.vUartRxTask                            0x08004510   Section        0  uart_task.o(i.vUartRxTask)
    i.vUartSendAllBufferData                 0x08004534   Section        0  uart_operation.o(i.vUartSendAllBufferData)
    i.vUartTxTask                            0x08004564   Section        0  uart_task.o(i.vUartTxTask)
    i.vUiAddOneWidgetToFrameAsTailWidgetNode 0x08004572   Section        0  ui_core.o(i.vUiAddOneWidgetToFrameAsTailWidgetNode)
    i.vUiClearFrame                          0x08004592   Section        0  oled_operation.o(i.vUiClearFrame)
    i.vUiFrameCallbackExecute                0x0800459e   Section        0  ui_core.o(i.vUiFrameCallbackExecute)
    i.vUiInit                                0x080045b4   Section        0  oled_operation.o(i.vUiInit)
    i.vUiMenuBoxExecuteSelectDec             0x080045f0   Section        0  ui_core.o(i.vUiMenuBoxExecuteSelectDec)
    i.vUiMenuBoxExecuteSelectInc             0x08004622   Section        0  ui_core.o(i.vUiMenuBoxExecuteSelectInc)
    i.vUiSetCurrentFrame                     0x08004660   Section        0  oled_operation.o(i.vUiSetCurrentFrame)
    i.vUpdateUiObjectToFrameBuffer           0x0800466c   Section        0  ui_core.o(i.vUpdateUiObjectToFrameBuffer)
    i.xPortStartScheduler                    0x08004680   Section        0  port.o(i.xPortStartScheduler)
    i.xPortSysTickHandler                    0x08004778   Section        0  port.o(i.xPortSysTickHandler)
    i.xQueueGenericCreate                    0x080047ac   Section        0  queue.o(i.xQueueGenericCreate)
    i.xQueueGenericCreateStatic              0x08004806   Section        0  queue.o(i.xQueueGenericCreateStatic)
    i.xQueueGenericReset                     0x080048e8   Section        0  queue.o(i.xQueueGenericReset)
    i.xQueueGenericSend                      0x08004980   Section        0  queue.o(i.xQueueGenericSend)
    i.xQueueGenericSendFromISR               0x08004b28   Section        0  queue.o(i.xQueueGenericSendFromISR)
    i.xQueueReceive                          0x08004c24   Section        0  queue.o(i.xQueueReceive)
    i.xTaskCheckForTimeOut                   0x08004d8c   Section        0  tasks.o(i.xTaskCheckForTimeOut)
    i.xTaskCreate                            0x08004e18   Section        0  tasks.o(i.xTaskCreate)
    i.xTaskCreateStatic                      0x08004e7c   Section        0  tasks.o(i.xTaskCreateStatic)
    i.xTaskGetSchedulerState                 0x08004f38   Section        0  tasks.o(i.xTaskGetSchedulerState)
    i.xTaskGetTickCount                      0x08004f58   Section        0  tasks.o(i.xTaskGetTickCount)
    i.xTaskIncrementTick                     0x08004f64   Section        0  tasks.o(i.xTaskIncrementTick)
    i.xTaskPriorityDisinherit                0x080050a8   Section        0  tasks.o(i.xTaskPriorityDisinherit)
    i.xTaskRemoveFromEventList               0x0800514c   Section        0  tasks.o(i.xTaskRemoveFromEventList)
    i.xTaskResumeAll                         0x080051e4   Section        0  tasks.o(i.xTaskResumeAll)
    i.xTimerCreateTimerTask                  0x080052e8   Section        0  timers.o(i.xTimerCreateTimerTask)
    i.xTimerGenericCommand                   0x08005360   Section        0  timers.o(i.xTimerGenericCommand)
    .constdata                               0x080053e4   Section      144  cmd_interpreter_operation.o(.constdata)
    cs_astCmdInterpreterList                 0x08005410   Data         100  cmd_interpreter_operation.o(.constdata)
    .constdata                               0x08005474   Section     6080  ui_font.o(.constdata)
    .constdata                               0x08006c34   Section      288  main.o(.constdata)
    .constdata                               0x08006d54   Section       18  stm32f1xx_hal_rcc.o(.constdata)
    aPLLMULFactorTable                       0x08006d54   Data          16  stm32f1xx_hal_rcc.o(.constdata)
    aPredivFactorTable                       0x08006d64   Data           2  stm32f1xx_hal_rcc.o(.constdata)
    .constdata                               0x08006d66   Section       24  system_stm32f1xx.o(.constdata)
    .conststring                             0x08006d80   Section       99  main.o(.conststring)
    .data                                    0x20000000   Section        4  button_process_task.o(.data)
    .data                                    0x20000004   Section        4  led_task.o(.data)
    .data                                    0x20000008   Section        4  oled_task.o(.data)
    .data                                    0x2000000c   Section        4  uart_task.o(.data)
    .data                                    0x20000010   Section        8  button_operation.o(.data)
    s_ulButtonValueCurrent                   0x20000010   Data           4  button_operation.o(.data)
    s_ulButtonValue                          0x20000014   Data           4  button_operation.o(.data)
    .data                                    0x20000018   Section        1  dht11_operation.o(.data)
    i                                        0x20000018   Data           1  dht11_operation.o(.data)
    .data                                    0x2000001c   Section        8  oled_operation.o(.data)
    s_stUiObject                             0x2000001c   Data           8  oled_operation.o(.data)
    .data                                    0x20000024   Section        1  uart_operation.o(.data)
    s_ucRTxData                              0x20000024   Data           1  uart_operation.o(.data)
    .data                                    0x20000028   Section      460  ui_frame_main.o(.data)
    s_aucMenuBoxData_SelectSign              0x20000028   Data           2  ui_frame_main.o(.data)
    s_aucMenuBoxData_LedCtrl                 0x2000002a   Data          22  ui_frame_main.o(.data)
    s_aucMenuBoxData_Dht11Show               0x20000040   Data          22  ui_frame_main.o(.data)
    s_aucMenuBoxData_Game                    0x20000056   Data          22  ui_frame_main.o(.data)
    s_aucMenuBoxData_TimeShow                0x2000006c   Data          22  ui_frame_main.o(.data)
    s_aucMenuBoxData_ButtonTest              0x20000082   Data          22  ui_frame_main.o(.data)
    s_aucMenuBoxData_About                   0x20000098   Data          22  ui_frame_main.o(.data)
    s_aucMenuBoxData_07                      0x200000ae   Data          22  ui_frame_main.o(.data)
    s_aucMenuBoxData_08                      0x200000c4   Data          22  ui_frame_main.o(.data)
    s_aucMenuBoxData_09                      0x200000da   Data          22  ui_frame_main.o(.data)
    s_aucMenuBoxData_10                      0x200000f0   Data          22  ui_frame_main.o(.data)
    s_aucMenuBoxData_11                      0x20000106   Data          22  ui_frame_main.o(.data)
    s_aucMenuBoxData_12                      0x2000011c   Data          22  ui_frame_main.o(.data)
    s_aucMenuBoxData_13                      0x20000132   Data          22  ui_frame_main.o(.data)
    s_aucMenuBoxData_14                      0x20000148   Data          22  ui_frame_main.o(.data)
    s_astMainFrameMenuBoxData                0x20000160   Data         112  ui_frame_main.o(.data)
    s_stMainFrameMenuBox                     0x200001d0   Data          24  ui_frame_main.o(.data)
    s_stMainFrameWidgetNode_MenuBox          0x200001e8   Data          12  ui_frame_main.o(.data)
    .data                                    0x200001f4   Section      130  ui_frame_led_ctrl.o(.data)
    s_aucTextBoxData_LedDevString            0x200001f4   Data           4  ui_frame_led_ctrl.o(.data)
    s_aucTextBoxData_LedDevValue             0x200001f8   Data           3  ui_frame_led_ctrl.o(.data)
    s_aucTextBoxData_LedOnString             0x200001fb   Data           3  ui_frame_led_ctrl.o(.data)
    s_aucTextBoxData_LedOffString            0x200001fe   Data           4  ui_frame_led_ctrl.o(.data)
    s_stLedCtrlFrameTextBox_LedDevString     0x20000204   Data          16  ui_frame_led_ctrl.o(.data)
    s_stLedCtrlFrameTextBox_LedDevValue      0x20000214   Data          16  ui_frame_led_ctrl.o(.data)
    s_stLedCtrlFrameTextBox_LedOnString      0x20000224   Data          16  ui_frame_led_ctrl.o(.data)
    s_stLedCtrlFrameTextBox_LedOffString     0x20000234   Data          16  ui_frame_led_ctrl.o(.data)
    s_stLedCtrlFrameWidgetNode_LedDevString  0x20000244   Data          12  ui_frame_led_ctrl.o(.data)
    s_stLedCtrlFrameWidgetNode_LedDevValue   0x20000250   Data          12  ui_frame_led_ctrl.o(.data)
    s_stLedCtrlFrameWidgetNode_LedOnString   0x2000025c   Data          12  ui_frame_led_ctrl.o(.data)
    s_stLedCtrlFrameWidgetNode_LedOffString  0x20000268   Data          12  ui_frame_led_ctrl.o(.data)
    s_ucLedDevNum                            0x20000274   Data           1  ui_frame_led_ctrl.o(.data)
    s_emStatus                               0x20000275   Data           1  ui_frame_led_ctrl.o(.data)
    .data                                    0x20000278   Section      156  ui_frame_dht11.o(.data)
    s_aucTextBoxData_TemperatureString       0x20000278   Data          13  ui_frame_dht11.o(.data)
    s_aucTextBoxData_TemperatureValue        0x20000285   Data           8  ui_frame_dht11.o(.data)
    s_aucTextBoxData_HumidityString          0x2000028d   Data          13  ui_frame_dht11.o(.data)
    s_aucTextBoxData_HumidityValue           0x2000029a   Data           8  ui_frame_dht11.o(.data)
    s_stDht11FrameTextBox_TemperatureString  0x200002a4   Data          16  ui_frame_dht11.o(.data)
    s_stDht11FrameTextBox_TemperatureValue   0x200002b4   Data          16  ui_frame_dht11.o(.data)
    s_stDht11FrameTextBox_HumidityString     0x200002c4   Data          16  ui_frame_dht11.o(.data)
    s_stDht11FrameTextBox_HumidityValue      0x200002d4   Data          16  ui_frame_dht11.o(.data)
    s_stDht11FrameWidgetNode_TemperatureString 0x200002e4   Data          12  ui_frame_dht11.o(.data)
    s_stDht11FrameWidgetNode_TemperatureValue 0x200002f0   Data          12  ui_frame_dht11.o(.data)
    s_stDht11FrameWidgetNode_HumidityString  0x200002fc   Data          12  ui_frame_dht11.o(.data)
    s_stDht11FrameWidgetNode_HumidityValue   0x20000308   Data          12  ui_frame_dht11.o(.data)
    .data                                    0x20000314   Section       32  main.o(.data)
    .data                                    0x20000334   Section        9  stm32f1xx_hal.o(.data)
    .data                                    0x20000340   Section        4  system_stm32f1xx.o(.data)
    .data                                    0x20000344   Section       60  tasks.o(.data)
    pxDelayedTaskList                        0x20000348   Data           4  tasks.o(.data)
    pxOverflowDelayedTaskList                0x2000034c   Data           4  tasks.o(.data)
    uxDeletedTasksWaitingCleanUp             0x20000350   Data           4  tasks.o(.data)
    uxCurrentNumberOfTasks                   0x20000354   Data           4  tasks.o(.data)
    xTickCount                               0x20000358   Data           4  tasks.o(.data)
    uxTopReadyPriority                       0x2000035c   Data           4  tasks.o(.data)
    xSchedulerRunning                        0x20000360   Data           4  tasks.o(.data)
    xPendedTicks                             0x20000364   Data           4  tasks.o(.data)
    xYieldPending                            0x20000368   Data           4  tasks.o(.data)
    xNumOfOverflows                          0x2000036c   Data           4  tasks.o(.data)
    uxTaskNumber                             0x20000370   Data           4  tasks.o(.data)
    xNextTaskUnblockTime                     0x20000374   Data           4  tasks.o(.data)
    xIdleTaskHandle                          0x20000378   Data           4  tasks.o(.data)
    uxSchedulerSuspended                     0x2000037c   Data           4  tasks.o(.data)
    .data                                    0x20000380   Section       20  timers.o(.data)
    pxCurrentTimerList                       0x20000380   Data           4  timers.o(.data)
    pxOverflowTimerList                      0x20000384   Data           4  timers.o(.data)
    xTimerQueue                              0x20000388   Data           4  timers.o(.data)
    xTimerTaskHandle                         0x2000038c   Data           4  timers.o(.data)
    xLastTime                                0x20000390   Data           4  timers.o(.data)
    .data                                    0x20000394   Section        4  cmsis_os2.o(.data)
    KernelState                              0x20000394   Data           4  cmsis_os2.o(.data)
    .data                                    0x20000398   Section       32  heap_4.o(.data)
    xStart                                   0x20000398   Data           8  heap_4.o(.data)
    pxEnd                                    0x200003a0   Data           4  heap_4.o(.data)
    xFreeBytesRemaining                      0x200003a4   Data           4  heap_4.o(.data)
    xMinimumEverFreeBytesRemaining           0x200003a8   Data           4  heap_4.o(.data)
    xNumberOfSuccessfulAllocations           0x200003ac   Data           4  heap_4.o(.data)
    xNumberOfSuccessfulFrees                 0x200003b0   Data           4  heap_4.o(.data)
    xBlockAllocatedBit                       0x200003b4   Data           4  heap_4.o(.data)
    .data                                    0x200003b8   Section       12  port.o(.data)
    uxCriticalNesting                        0x200003b8   Data           4  port.o(.data)
    ucMaxSysCallPriority                     0x200003bc   Data           1  port.o(.data)
    ulMaxPRIGROUPValue                       0x200003c0   Data           4  port.o(.data)
    .data                                    0x200003c4   Section        4  strtok.o(.data)
    state                                    0x200003c4   Data           4  strtok.o(.data)
    .bss                                     0x200003c8   Section       20  cmd_interpreter_operation.o(.bss)
    s_stLedParamSetBuffer                    0x200003c8   Data          20  cmd_interpreter_operation.o(.bss)
    .bss                                     0x200003dc   Section      164  dht11_operation.o(.bss)
    s_stRunningParam                         0x200003dc   Data         164  dht11_operation.o(.bss)
    .bss                                     0x20000480   Section       12  oled_operation.o(.bss)
    s_apstFrame                              0x20000480   Data          12  oled_operation.o(.bss)
    .bss                                     0x2000048c   Section      250  uart_operation.o(.bss)
    s_aucTxByteBuffer                        0x2000048c   Data         100  uart_operation.o(.bss)
    s_aucRxByteBuffer                        0x200004f0   Data         100  uart_operation.o(.bss)
    s_ucCmdLineBuffer                        0x20000554   Data          50  uart_operation.o(.bss)
    .bss                                     0x20000588   Section       80  button_device.o(.bss)
    s_astButtonDevice                        0x20000588   Data          80  button_device.o(.bss)
    .bss                                     0x200005d8   Section       12  cmd_interpreter_device.o(.bss)
    .bss                                     0x200005e4   Section       12  dht11_device.o(.bss)
    s_stDht11Device                          0x200005e4   Data          12  dht11_device.o(.bss)
    .bss                                     0x200005f0   Section      216  led_device.o(.bss)
    s_astLedDevice                           0x200005f0   Data         216  led_device.o(.bss)
    .bss                                     0x200006c8   Section       20  oled_device.o(.bss)
    s_astOledDeviceParam                     0x200006c8   Data          20  oled_device.o(.bss)
    .bss                                     0x200006dc   Section       48  ring_buffer_device.o(.bss)
    .bss                                     0x2000070c   Section       12  ui_frame_main.o(.bss)
    s_stMainFrame                            0x2000070c   Data          12  ui_frame_main.o(.bss)
    .bss                                     0x20000718   Section       32  ui_frame_led_ctrl.o(.bss)
    s_stLedParamSetBuffer                    0x20000718   Data          20  ui_frame_led_ctrl.o(.bss)
    s_stLedCtrlFrame                         0x2000072c   Data          12  ui_frame_led_ctrl.o(.bss)
    .bss                                     0x20000738   Section       12  ui_frame_dht11.o(.bss)
    s_stDht11Frame                           0x20000738   Data          12  ui_frame_dht11.o(.bss)
    .bss                                     0x20000744   Section     1024  ui_core.o(.bss)
    s_aucUiOneFrameBuffer                    0x20000744   Data        1024  ui_core.o(.bss)
    .bss                                     0x20000b44   Section       72  main.o(.bss)
    .bss                                     0x20000b8c   Section       64  queue.o(.bss)
    .bss                                     0x20000bcc   Section     1220  tasks.o(.bss)
    pxReadyTasksLists                        0x20000bcc   Data        1120  tasks.o(.bss)
    xDelayedTaskList1                        0x2000102c   Data          20  tasks.o(.bss)
    xDelayedTaskList2                        0x20001040   Data          20  tasks.o(.bss)
    xPendingReadyList                        0x20001054   Data          20  tasks.o(.bss)
    xTasksWaitingTermination                 0x20001068   Data          20  tasks.o(.bss)
    xSuspendedTaskList                       0x2000107c   Data          20  tasks.o(.bss)
    .bss                                     0x20001090   Section      280  timers.o(.bss)
    xActiveTimerList1                        0x20001090   Data          20  timers.o(.bss)
    xActiveTimerList2                        0x200010a4   Data          20  timers.o(.bss)
    xStaticTimerQueue                        0x200010b8   Data          80  timers.o(.bss)
    ucStaticTimerQueueStorage                0x20001108   Data         160  timers.o(.bss)
    .bss                                     0x200011a8   Section      952  cmsis_os2.o(.bss)
    Idle_TCB                                 0x200011a8   Data          92  cmsis_os2.o(.bss)
    Idle_Stack                               0x20001204   Data         256  cmsis_os2.o(.bss)
    Timer_TCB                                0x20001304   Data          92  cmsis_os2.o(.bss)
    Timer_Stack                              0x20001360   Data         512  cmsis_os2.o(.bss)
    .bss                                     0x20001560   Section     4096  heap_4.o(.bss)
    ucHeap                                   0x20001560   Data        4096  heap_4.o(.bss)
    STACK                                    0x20002560   Section     1024  startup_stm32f103xb.o(STACK)

    Global Symbols

    Symbol Name                              Value     Ov Type        Size  Object(Section)

    BuildAttributes$$THM_ISAv4$P$D$K$B$S$PE$A:L22UL41UL21$X:L11$S22US41US21$IEEE1$IW$USESV6$~STKCKD$USESV7$~SHL$OSPACE$EBA8$MICROLIB$REQ8$PRES8$EABIv2 0x00000000   Number         0  anon$$obj.o ABSOLUTE
    __ARM_use_no_argv                        0x00000000   Number         0  main.o ABSOLUTE
    __cpp_initialize__aeabi_                  - Undefined Weak Reference
    __cxa_finalize                            - Undefined Weak Reference
    _clock_init                               - Undefined Weak Reference
    _microlib_exit                            - Undefined Weak Reference
    __Vectors_Size                           0x000000ec   Number         0  startup_stm32f103xb.o ABSOLUTE
    __Vectors                                0x08000000   Data           4  startup_stm32f103xb.o(RESET)
    __Vectors_End                            0x080000ec   Data           0  startup_stm32f103xb.o(RESET)
    __main                                   0x080000ed   Thumb Code     0  entry.o(.ARM.Collect$$$$00000000)
    _main_stk                                0x080000ed   Thumb Code     0  entry2.o(.ARM.Collect$$$$00000001)
    _main_scatterload                        0x080000f1   Thumb Code     0  entry5.o(.ARM.Collect$$$$00000004)
    __main_after_scatterload                 0x080000f5   Thumb Code     0  entry5.o(.ARM.Collect$$$$00000004)
    _main_clock                              0x080000f5   Thumb Code     0  entry7b.o(.ARM.Collect$$$$00000008)
    _main_cpp_init                           0x080000f5   Thumb Code     0  entry8b.o(.ARM.Collect$$$$0000000A)
    _main_init                               0x080000f5   Thumb Code     0  entry9a.o(.ARM.Collect$$$$0000000B)
    __rt_final_cpp                           0x080000fd   Thumb Code     0  entry10a.o(.ARM.Collect$$$$0000000D)
    __rt_final_exit                          0x080000fd   Thumb Code     0  entry11a.o(.ARM.Collect$$$$0000000F)
    SVC_Handler                              0x08000101   Thumb Code    32  port.o(.emb_text)
    __asm___6_port_c_39a90d8d__prvStartFirstTask 0x08000125   Thumb Code    28  port.o(.emb_text)
    PendSV_Handler                           0x08000145   Thumb Code    72  port.o(.emb_text)
    vPortGetIPSR                             0x08000191   Thumb Code     6  port.o(.emb_text)
    Reset_Handler                            0x08000199   Thumb Code     8  startup_stm32f103xb.o(.text)
    ADC1_2_IRQHandler                        0x080001b3   Thumb Code     0  startup_stm32f103xb.o(.text)
    CAN1_RX1_IRQHandler                      0x080001b3   Thumb Code     0  startup_stm32f103xb.o(.text)
    CAN1_SCE_IRQHandler                      0x080001b3   Thumb Code     0  startup_stm32f103xb.o(.text)
    DMA1_Channel1_IRQHandler                 0x080001b3   Thumb Code     0  startup_stm32f103xb.o(.text)
    DMA1_Channel2_IRQHandler                 0x080001b3   Thumb Code     0  startup_stm32f103xb.o(.text)
    DMA1_Channel3_IRQHandler                 0x080001b3   Thumb Code     0  startup_stm32f103xb.o(.text)
    DMA1_Channel4_IRQHandler                 0x080001b3   Thumb Code     0  startup_stm32f103xb.o(.text)
    DMA1_Channel5_IRQHandler                 0x080001b3   Thumb Code     0  startup_stm32f103xb.o(.text)
    DMA1_Channel6_IRQHandler                 0x080001b3   Thumb Code     0  startup_stm32f103xb.o(.text)
    DMA1_Channel7_IRQHandler                 0x080001b3   Thumb Code     0  startup_stm32f103xb.o(.text)
    EXTI0_IRQHandler                         0x080001b3   Thumb Code     0  startup_stm32f103xb.o(.text)
    EXTI15_10_IRQHandler                     0x080001b3   Thumb Code     0  startup_stm32f103xb.o(.text)
    EXTI1_IRQHandler                         0x080001b3   Thumb Code     0  startup_stm32f103xb.o(.text)
    EXTI2_IRQHandler                         0x080001b3   Thumb Code     0  startup_stm32f103xb.o(.text)
    EXTI3_IRQHandler                         0x080001b3   Thumb Code     0  startup_stm32f103xb.o(.text)
    EXTI4_IRQHandler                         0x080001b3   Thumb Code     0  startup_stm32f103xb.o(.text)
    EXTI9_5_IRQHandler                       0x080001b3   Thumb Code     0  startup_stm32f103xb.o(.text)
    FLASH_IRQHandler                         0x080001b3   Thumb Code     0  startup_stm32f103xb.o(.text)
    I2C1_ER_IRQHandler                       0x080001b3   Thumb Code     0  startup_stm32f103xb.o(.text)
    I2C1_EV_IRQHandler                       0x080001b3   Thumb Code     0  startup_stm32f103xb.o(.text)
    I2C2_ER_IRQHandler                       0x080001b3   Thumb Code     0  startup_stm32f103xb.o(.text)
    I2C2_EV_IRQHandler                       0x080001b3   Thumb Code     0  startup_stm32f103xb.o(.text)
    PVD_IRQHandler                           0x080001b3   Thumb Code     0  startup_stm32f103xb.o(.text)
    RCC_IRQHandler                           0x080001b3   Thumb Code     0  startup_stm32f103xb.o(.text)
    RTC_Alarm_IRQHandler                     0x080001b3   Thumb Code     0  startup_stm32f103xb.o(.text)
    RTC_IRQHandler                           0x080001b3   Thumb Code     0  startup_stm32f103xb.o(.text)
    SPI1_IRQHandler                          0x080001b3   Thumb Code     0  startup_stm32f103xb.o(.text)
    SPI2_IRQHandler                          0x080001b3   Thumb Code     0  startup_stm32f103xb.o(.text)
    TAMPER_IRQHandler                        0x080001b3   Thumb Code     0  startup_stm32f103xb.o(.text)
    TIM1_BRK_IRQHandler                      0x080001b3   Thumb Code     0  startup_stm32f103xb.o(.text)
    TIM1_CC_IRQHandler                       0x080001b3   Thumb Code     0  startup_stm32f103xb.o(.text)
    TIM1_TRG_COM_IRQHandler                  0x080001b3   Thumb Code     0  startup_stm32f103xb.o(.text)
    TIM1_UP_IRQHandler                       0x080001b3   Thumb Code     0  startup_stm32f103xb.o(.text)
    TIM2_IRQHandler                          0x080001b3   Thumb Code     0  startup_stm32f103xb.o(.text)
    TIM3_IRQHandler                          0x080001b3   Thumb Code     0  startup_stm32f103xb.o(.text)
    TIM4_IRQHandler                          0x080001b3   Thumb Code     0  startup_stm32f103xb.o(.text)
    USART2_IRQHandler                        0x080001b3   Thumb Code     0  startup_stm32f103xb.o(.text)
    USART3_IRQHandler                        0x080001b3   Thumb Code     0  startup_stm32f103xb.o(.text)
    USBWakeUp_IRQHandler                     0x080001b3   Thumb Code     0  startup_stm32f103xb.o(.text)
    USB_HP_CAN1_TX_IRQHandler                0x080001b3   Thumb Code     0  startup_stm32f103xb.o(.text)
    USB_LP_CAN1_RX0_IRQHandler               0x080001b3   Thumb Code     0  startup_stm32f103xb.o(.text)
    WWDG_IRQHandler                          0x080001b3   Thumb Code     0  startup_stm32f103xb.o(.text)
    __aeabi_memcpy                           0x080001bd   Thumb Code    36  memcpya.o(.text)
    __aeabi_memcpy4                          0x080001bd   Thumb Code     0  memcpya.o(.text)
    __aeabi_memcpy8                          0x080001bd   Thumb Code     0  memcpya.o(.text)
    __aeabi_memset                           0x080001e1   Thumb Code    14  memseta.o(.text)
    __aeabi_memset4                          0x080001e1   Thumb Code     0  memseta.o(.text)
    __aeabi_memset8                          0x080001e1   Thumb Code     0  memseta.o(.text)
    __aeabi_memclr                           0x080001ef   Thumb Code     4  memseta.o(.text)
    __aeabi_memclr4                          0x080001ef   Thumb Code     0  memseta.o(.text)
    __aeabi_memclr8                          0x080001ef   Thumb Code     0  memseta.o(.text)
    memset                                   0x080001f3   Thumb Code    18  memseta.o(.text)
    strcmp                                   0x08000205   Thumb Code    28  strcmp.o(.text)
    strtok                                   0x08000221   Thumb Code    62  strtok.o(.text)
    __scatterload                            0x08000265   Thumb Code    28  init.o(.text)
    __scatterload_rt2                        0x08000265   Thumb Code     0  init.o(.text)
    __decompress                             0x08000289   Thumb Code     0  __dczerorl2.o(.text)
    __decompress1                            0x08000289   Thumb Code    86  __dczerorl2.o(.text)
    BusFault_Handler                         0x080002df   Thumb Code     4  stm32f1xx_it.o(i.BusFault_Handler)
    CmdSendString                            0x080002e5   Thumb Code    18  cmd_interpreter_operation.o(i.CmdSendString)
    DebugMon_Handler                         0x080002fd   Thumb Code     2  stm32f1xx_it.o(i.DebugMon_Handler)
    Error_Handler                            0x080002ff   Thumb Code     6  main.o(i.Error_Handler)
    HAL_GPIO_Init                            0x08000305   Thumb Code   766  stm32f1xx_hal_gpio.o(i.HAL_GPIO_Init)
    HAL_GPIO_ReadPin                         0x08000625   Thumb Code    16  stm32f1xx_hal_gpio.o(i.HAL_GPIO_ReadPin)
    HAL_GPIO_WritePin                        0x08000635   Thumb Code    12  stm32f1xx_hal_gpio.o(i.HAL_GPIO_WritePin)
    HAL_GetTick                              0x08000641   Thumb Code     6  stm32f1xx_hal.o(i.HAL_GetTick)
    HAL_IncTick                              0x0800064d   Thumb Code    16  stm32f1xx_hal.o(i.HAL_IncTick)
    HAL_Init                                 0x08000665   Thumb Code    34  stm32f1xx_hal.o(i.HAL_Init)
    HAL_InitTick                             0x0800068d   Thumb Code    64  stm32f1xx_hal.o(i.HAL_InitTick)
    HAL_MspInit                              0x080006d9   Thumb Code    86  stm32f1xx_hal_msp.o(i.HAL_MspInit)
    HAL_NVIC_EnableIRQ                       0x08000739   Thumb Code    32  stm32f1xx_hal_cortex.o(i.HAL_NVIC_EnableIRQ)
    HAL_NVIC_SetPriority                     0x08000759   Thumb Code   124  stm32f1xx_hal_cortex.o(i.HAL_NVIC_SetPriority)
    HAL_NVIC_SetPriorityGrouping             0x080007d5   Thumb Code    32  stm32f1xx_hal_cortex.o(i.HAL_NVIC_SetPriorityGrouping)
    HAL_RCC_ClockConfig                      0x080007fd   Thumb Code   376  stm32f1xx_hal_rcc.o(i.HAL_RCC_ClockConfig)
    HAL_RCC_GetHCLKFreq                      0x08000989   Thumb Code     6  stm32f1xx_hal_rcc.o(i.HAL_RCC_GetHCLKFreq)
    HAL_RCC_GetPCLK1Freq                     0x08000995   Thumb Code    22  stm32f1xx_hal_rcc.o(i.HAL_RCC_GetPCLK1Freq)
    HAL_RCC_GetPCLK2Freq                     0x080009b5   Thumb Code    22  stm32f1xx_hal_rcc.o(i.HAL_RCC_GetPCLK2Freq)
    HAL_RCC_GetSysClockFreq                  0x080009d5   Thumb Code    92  stm32f1xx_hal_rcc.o(i.HAL_RCC_GetSysClockFreq)
    HAL_RCC_OscConfig                        0x08000a45   Thumb Code  1114  stm32f1xx_hal_rcc.o(i.HAL_RCC_OscConfig)
    HAL_SYSTICK_Config                       0x08000ea9   Thumb Code    52  stm32f1xx_hal_cortex.o(i.HAL_SYSTICK_Config)
    HAL_UART_Init                            0x08000edd   Thumb Code   118  stm32f1xx_hal_uart.o(i.HAL_UART_Init)
    HAL_UART_MspInit                         0x08000f55   Thumb Code   138  stm32f1xx_hal_msp.o(i.HAL_UART_MspInit)
    HAL_UART_Transmit                        0x08000fed   Thumb Code   190  stm32f1xx_hal_uart.o(i.HAL_UART_Transmit)
    HardFault_Handler                        0x080010ab   Thumb Code     4  stm32f1xx_it.o(i.HardFault_Handler)
    MemManage_Handler                        0x08001225   Thumb Code     4  stm32f1xx_it.o(i.MemManage_Handler)
    NMI_Handler                              0x08001229   Thumb Code     4  stm32f1xx_it.o(i.NMI_Handler)
    SysTick_Handler                          0x08001255   Thumb Code    20  stm32f1xx_it.o(i.SysTick_Handler)
    SystemClock_Config                       0x08001269   Thumb Code   102  main.o(i.SystemClock_Config)
    SystemInit                               0x080012cf   Thumb Code     2  system_stm32f1xx.o(i.SystemInit)
    USART1_IRQHandler                        0x080014c5   Thumb Code     8  stm32f1xx_it.o(i.USART1_IRQHandler)
    UsageFault_Handler                       0x080014cd   Thumb Code     4  stm32f1xx_it.o(i.UsageFault_Handler)
    __scatterload_copy                       0x0800150f   Thumb Code    14  handlers.o(i.__scatterload_copy)
    __scatterload_null                       0x0800151d   Thumb Code     2  handlers.o(i.__scatterload_null)
    __scatterload_zeroinit                   0x0800151f   Thumb Code    14  handlers.o(i.__scatterload_zeroinit)
    c_pstDht11GetRunningParam                0x0800152d   Thumb Code    16  dht11_device.o(i.c_pstDht11GetRunningParam)
    c_pstGetLedRunningParam                  0x08001541   Thumb Code    16  led_device.o(i.c_pstGetLedRunningParam)
    c_pstRingBufferGetRunningParam           0x08001555   Thumb Code    16  ring_buffer_device.o(i.c_pstRingBufferGetRunningParam)
    c_pstRingBufferGetStaticParam            0x08001569   Thumb Code    14  ring_buffer_device.o(i.c_pstRingBufferGetStaticParam)
    c_pucUiGetFrameBuffer                    0x0800157d   Thumb Code     4  ui_core.o(i.c_pucUiGetFrameBuffer)
    emButtonDeviceInit                       0x08001585   Thumb Code    74  button_device.o(i.emButtonDeviceInit)
    emButtonGetEvent                         0x080015d5   Thumb Code    40  button_device.o(i.emButtonGetEvent)
    emCmdInterpreterDevInit                  0x08001601   Thumb Code    18  cmd_interpreter_device.o(i.emCmdInterpreterDevInit)
    emCmdInterpreterExecute                  0x08001615   Thumb Code   240  cmd_interpreter_device.o(i.emCmdInterpreterExecute)
    emDht11DevInit                           0x0800170d   Thumb Code    18  dht11_device.o(i.emDht11DevInit)
    emLedDeviceInit                          0x0800171f   Thumb Code    18  led_device.o(i.emLedDeviceInit)
    emRingBufferDevInit                      0x08001731   Thumb Code    40  ring_buffer_device.o(i.emRingBufferDevInit)
    emRingBufferReadSingleElement            0x08001759   Thumb Code   190  ring_buffer_device.o(i.emRingBufferReadSingleElement)
    emRingBufferWriteSingleElement           0x0800181d   Thumb Code   192  ring_buffer_device.o(i.emRingBufferWriteSingleElement)
    main                                     0x080018e1   Thumb Code   140  main.o(i.main)
    osDelay                                  0x080019cd   Thumb Code    30  cmsis_os2.o(i.osDelay)
    osKernelInitialize                       0x080019ed   Thumb Code    38  cmsis_os2.o(i.osKernelInitialize)
    osKernelStart                            0x08001a19   Thumb Code    82  cmsis_os2.o(i.osKernelStart)
    osThreadNew                              0x08001a79   Thumb Code   184  cmsis_os2.o(i.osThreadNew)
    pstGetDht11Frame                         0x08002555   Thumb Code     4  ui_frame_dht11.o(i.pstGetDht11Frame)
    pstGetLedCtrlFrame                       0x0800255d   Thumb Code     4  ui_frame_led_ctrl.o(i.pstGetLedCtrlFrame)
    pstGetMainFrame                          0x08002565   Thumb Code     4  ui_frame_main.o(i.pstGetMainFrame)
    pvPortMalloc                             0x0800256d   Thumb Code   306  heap_4.o(i.pvPortMalloc)
    pxPortInitialiseStack                    0x080026b9   Thumb Code    30  port.o(i.pxPortInitialiseStack)
    sGetAverageWithoutMaxAndMin              0x080026dd   Thumb Code   128  dht11_operation.o(i.sGetAverageWithoutMaxAndMin)
    ucDht11ReadBit                           0x08002f29   Thumb Code   134  dht11_device.o(i.ucDht11ReadBit)
    ucDht11ReadData                          0x08002fb5   Thumb Code   210  dht11_device.o(i.ucDht11ReadData)
    ucDht11WaitForAck                        0x0800308d   Thumb Code   176  dht11_device.o(i.ucDht11WaitForAck)
    ulButtonGetEvents                        0x08003141   Thumb Code    56  button_device.o(i.ulButtonGetEvents)
    ulStringToUint32                         0x08003179   Thumb Code    34  cmd_interpreter_operation.o(i.ulStringToUint32)
    uxListRemove                             0x0800319b   Thumb Code    40  list.o(i.uxListRemove)
    vApplicationGetIdleTaskMemory            0x080031c5   Thumb Code    14  cmsis_os2.o(i.vApplicationGetIdleTaskMemory)
    vApplicationGetTimerTaskMemory           0x080031dd   Thumb Code    14  cmsis_os2.o(i.vApplicationGetTimerTaskMemory)
    vButtonInit                              0x080031f5   Thumb Code   128  button_operation.o(i.vButtonInit)
    vButtonProcessTask                       0x0800327d   Thumb Code    62  button_process_task.o(i.vButtonProcessTask)
    vButtonRefreshStatus                     0x080032c1   Thumb Code   114  button_device.o(i.vButtonRefreshStatus)
    vButtonScan                              0x08003339   Thumb Code    28  button_operation.o(i.vButtonScan)
    vButtonValueProcess                      0x0800335d   Thumb Code    14  button_operation.o(i.vButtonValueProcess)
    vClearFrameBuffer                        0x08003371   Thumb Code    26  ui_core.o(i.vClearFrameBuffer)
    vCmdInterpreterExecuteCallback_LedBlink_ParamNum2 0x08003391   Thumb Code    82  cmd_interpreter_operation.o(i.vCmdInterpreterExecuteCallback_LedBlink_ParamNum2)
    vCmdInterpreterExecuteCallback_LedBlink_ParamNum3 0x080033f5   Thumb Code    82  cmd_interpreter_operation.o(i.vCmdInterpreterExecuteCallback_LedBlink_ParamNum3)
    vCmdInterpreterExecuteCallback_LedOff    0x08003459   Thumb Code    62  cmd_interpreter_operation.o(i.vCmdInterpreterExecuteCallback_LedOff)
    vCmdInterpreterExecuteCallback_LedOn     0x080034a9   Thumb Code    62  cmd_interpreter_operation.o(i.vCmdInterpreterExecuteCallback_LedOn)
    vCmdInterpreterExecuteCallback_LedToggle 0x080034f9   Thumb Code    84  cmd_interpreter_operation.o(i.vCmdInterpreterExecuteCallback_LedToggle)
    vCmdInterpreterInit                      0x0800355d   Thumb Code    20  cmd_interpreter_operation.o(i.vCmdInterpreterInit)
    vCmdInterpreterOperationExecute          0x08003575   Thumb Code    14  cmd_interpreter_operation.o(i.vCmdInterpreterOperationExecute)
    vDht11FrameInit                          0x08003585   Thumb Code    42  ui_frame_dht11.o(i.vDht11FrameInit)
    vDht11FrameUpdateHumidityValue           0x080035c9   Thumb Code    96  ui_frame_dht11.o(i.vDht11FrameUpdateHumidityValue)
    vDht11FrameUpdateTemperatureValue        0x0800362d   Thumb Code    96  ui_frame_dht11.o(i.vDht11FrameUpdateTemperatureValue)
    vDht11Init                               0x08003691   Thumb Code    20  dht11_operation.o(i.vDht11Init)
    vDht11RefreshData                        0x080036a9   Thumb Code   174  dht11_operation.o(i.vDht11RefreshData)
    vDht11SetPinDirInput                     0x08003761   Thumb Code    46  dht11_device.o(i.vDht11SetPinDirInput)
    vDht11SetPinDirOutput                    0x08003795   Thumb Code    44  dht11_device.o(i.vDht11SetPinDirOutput)
    vDht11Start                              0x080037c5   Thumb Code    36  dht11_device.o(i.vDht11Start)
    vDht11Task                               0x080037e9   Thumb Code    18  dht11_task.o(i.vDht11Task)
    vDht11WritePinHigh                       0x080037fd   Thumb Code    34  dht11_device.o(i.vDht11WritePinHigh)
    vDht11WritePinLow                        0x08003825   Thumb Code    34  dht11_device.o(i.vDht11WritePinLow)
    vLedCtrlFrameInit                        0x0800384d   Thumb Code    42  ui_frame_led_ctrl.o(i.vLedCtrlFrameInit)
    vLedCtrlRequestLedOff                    0x08003891   Thumb Code    46  ui_frame_led_ctrl.o(i.vLedCtrlRequestLedOff)
    vLedCtrlRequestLedOn                     0x080038c9   Thumb Code    46  ui_frame_led_ctrl.o(i.vLedCtrlRequestLedOn)
    vLedExecute                              0x08003901   Thumb Code   172  led_device.o(i.vLedExecute)
    vLedInit                                 0x080039b1   Thumb Code   494  led_operation.o(i.vLedInit)
    vLedOperationExecute                     0x08003bad   Thumb Code    22  led_operation.o(i.vLedOperationExecute)
    vLedOperationParamUpdate                 0x08003bc3   Thumb Code    14  led_operation.o(i.vLedOperationParamUpdate)
    vLedRefreshOutputLevel                   0x08003bd1   Thumb Code    68  led_device.o(i.vLedRefreshOutputLevel)
    vLedSetRunningParam                      0x08003c19   Thumb Code   112  led_device.o(i.vLedSetRunningParam)
    vLedTask                                 0x08003c8d   Thumb Code    54  led_task.o(i.vLedTask)
    vListInitialise                          0x08003cc9   Thumb Code    26  list.o(i.vListInitialise)
    vListInitialiseItem                      0x08003ce3   Thumb Code     6  list.o(i.vListInitialiseItem)
    vListInsert                              0x08003ce9   Thumb Code    52  list.o(i.vListInsert)
    vListInsertEnd                           0x08003d1d   Thumb Code    24  list.o(i.vListInsertEnd)
    vLoopTask                                0x08003d35   Thumb Code    18  loop_task.o(i.vLoopTask)
    vMainFrameInit                           0x08003d49   Thumb Code    18  ui_frame_main.o(i.vMainFrameInit)
    vOledCmdInit                             0x08003d69   Thumb Code   230  oled_device.o(i.vOledCmdInit)
    vOledDeviceInit                          0x08003e4f   Thumb Code    22  oled_device.o(i.vOledDeviceInit)
    vOledExecuteCurrentFrameCallback         0x08003e65   Thumb Code    14  oled_operation.o(i.vOledExecuteCurrentFrameCallback)
    vOledInit                                0x08003e79   Thumb Code    32  oled_operation.o(i.vOledInit)
    vOledRefreshCurrentFrame                 0x08003e9d   Thumb Code    22  oled_operation.o(i.vOledRefreshCurrentFrame)
    vOledRefreshFromBuffer                   0x08003eb9   Thumb Code    84  oled_device.o(i.vOledRefreshFromBuffer)
    vOledTask                                0x08003f0d   Thumb Code    64  oled_task.o(i.vOledTask)
    vPortEnterCritical                       0x08003f51   Thumb Code    76  port.o(i.vPortEnterCritical)
    vPortExitCritical                        0x08003fa5   Thumb Code    56  port.o(i.vPortExitCritical)
    vPortFree                                0x08003fe1   Thumb Code   150  heap_4.o(i.vPortFree)
    vPortSetupTimerInterrupt                 0x08004085   Thumb Code    36  port.o(i.vPortSetupTimerInterrupt)
    vPortValidateInterruptPriority           0x080040ad   Thumb Code   106  port.o(i.vPortValidateInterruptPriority)
    vQueueAddToRegistry                      0x08004125   Thumb Code    38  queue.o(i.vQueueAddToRegistry)
    vQueueWaitForMessageRestricted           0x08004151   Thumb Code    74  queue.o(i.vQueueWaitForMessageRestricted)
    vTaskDelay                               0x0800419d   Thumb Code    82  tasks.o(i.vTaskDelay)
    vTaskInternalSetTimeOutState             0x080041f9   Thumb Code    14  tasks.o(i.vTaskInternalSetTimeOutState)
    vTaskMissedYield                         0x08004211   Thumb Code     8  tasks.o(i.vTaskMissedYield)
    vTaskPlaceOnEventList                    0x0800421d   Thumb Code    52  tasks.o(i.vTaskPlaceOnEventList)
    vTaskPlaceOnEventListRestricted          0x08004255   Thumb Code    60  tasks.o(i.vTaskPlaceOnEventListRestricted)
    vTaskStartScheduler                      0x08004295   Thumb Code   156  tasks.o(i.vTaskStartScheduler)
    vTaskSuspendAll                          0x0800434d   Thumb Code    12  tasks.o(i.vTaskSuspendAll)
    vTaskSwitchContext                       0x0800435d   Thumb Code   122  tasks.o(i.vTaskSwitchContext)
    vUart1InterruptCallback                  0x080043ed   Thumb Code    46  uart_operation.o(i.vUart1InterruptCallback)
    vUartCmdInterpreterTask                  0x08004425   Thumb Code    36  uart_task.o(i.vUartCmdInterpreterTask)
    vUartGetCmdLine                          0x0800444d   Thumb Code   116  uart_operation.o(i.vUartGetCmdLine)
    vUartInit                                0x080044c9   Thumb Code    60  uart_operation.o(i.vUartInit)
    vUartRxTask                              0x08004511   Thumb Code    32  uart_task.o(i.vUartRxTask)
    vUartSendAllBufferData                   0x08004535   Thumb Code    42  uart_operation.o(i.vUartSendAllBufferData)
    vUartTxTask                              0x08004565   Thumb Code    14  uart_task.o(i.vUartTxTask)
    vUiAddOneWidgetToFrameAsTailWidgetNode   0x08004573   Thumb Code    32  ui_core.o(i.vUiAddOneWidgetToFrameAsTailWidgetNode)
    vUiClearFrame                            0x08004593   Thumb Code    12  oled_operation.o(i.vUiClearFrame)
    vUiFrameCallbackExecute                  0x0800459f   Thumb Code    22  ui_core.o(i.vUiFrameCallbackExecute)
    vUiInit                                  0x080045b5   Thumb Code    50  oled_operation.o(i.vUiInit)
    vUiMenuBoxExecuteSelectDec               0x080045f1   Thumb Code    50  ui_core.o(i.vUiMenuBoxExecuteSelectDec)
    vUiMenuBoxExecuteSelectInc               0x08004623   Thumb Code    62  ui_core.o(i.vUiMenuBoxExecuteSelectInc)
    vUiSetCurrentFrame                       0x08004661   Thumb Code     6  oled_operation.o(i.vUiSetCurrentFrame)
    vUpdateUiObjectToFrameBuffer             0x0800466d   Thumb Code    18  ui_core.o(i.vUpdateUiObjectToFrameBuffer)
    xPortStartScheduler                      0x08004681   Thumb Code   228  port.o(i.xPortStartScheduler)
    xPortSysTickHandler                      0x08004779   Thumb Code    46  port.o(i.xPortSysTickHandler)
    xQueueGenericCreate                      0x080047ad   Thumb Code    90  queue.o(i.xQueueGenericCreate)
    xQueueGenericCreateStatic                0x08004807   Thumb Code   224  queue.o(i.xQueueGenericCreateStatic)
    xQueueGenericReset                       0x080048e9   Thumb Code   146  queue.o(i.xQueueGenericReset)
    xQueueGenericSend                        0x08004981   Thumb Code   420  queue.o(i.xQueueGenericSend)
    xQueueGenericSendFromISR                 0x08004b29   Thumb Code   252  queue.o(i.xQueueGenericSendFromISR)
    xQueueReceive                            0x08004c25   Thumb Code   356  queue.o(i.xQueueReceive)
    xTaskCheckForTimeOut                     0x08004d8d   Thumb Code   132  tasks.o(i.xTaskCheckForTimeOut)
    xTaskCreate                              0x08004e19   Thumb Code   100  tasks.o(i.xTaskCreate)
    xTaskCreateStatic                        0x08004e7d   Thumb Code   186  tasks.o(i.xTaskCreateStatic)
    xTaskGetSchedulerState                   0x08004f39   Thumb Code    24  tasks.o(i.xTaskGetSchedulerState)
    xTaskGetTickCount                        0x08004f59   Thumb Code     6  tasks.o(i.xTaskGetTickCount)
    xTaskIncrementTick                       0x08004f65   Thumb Code   280  tasks.o(i.xTaskIncrementTick)
    xTaskPriorityDisinherit                  0x080050a9   Thumb Code   152  tasks.o(i.xTaskPriorityDisinherit)
    xTaskRemoveFromEventList                 0x0800514d   Thumb Code   126  tasks.o(i.xTaskRemoveFromEventList)
    xTaskResumeAll                           0x080051e5   Thumb Code   222  tasks.o(i.xTaskResumeAll)
    xTimerCreateTimerTask                    0x080052e9   Thumb Code   100  timers.o(i.xTimerCreateTimerTask)
    xTimerGenericCommand                     0x08005361   Thumb Code   128  timers.o(i.xTimerGenericCommand)
    c_aucStringObject_Led                    0x080053e4   Data           4  cmd_interpreter_operation.o(.constdata)
    c_aucStringCmd_On                        0x080053e8   Data           3  cmd_interpreter_operation.o(.constdata)
    c_aucStringCmd_Off                       0x080053eb   Data           4  cmd_interpreter_operation.o(.constdata)
    c_aucStringCmd_Toggle                    0x080053ef   Data           7  cmd_interpreter_operation.o(.constdata)
    c_aucStringCmd_Blink                     0x080053f6   Data           6  cmd_interpreter_operation.o(.constdata)
    c_aucStringParam_Led                     0x080053fc   Data          20  cmd_interpreter_operation.o(.constdata)
    c_a2ucUiFont_Ascii_1206                  0x08005474   Data        1140  ui_font.o(.constdata)
    c_a2ucUiFont_Ascii_1608                  0x080058e8   Data        1520  ui_font.o(.constdata)
    c_a2ucUiFont_Ascii_2412                  0x08005ed8   Data        3420  ui_font.o(.constdata)
    LoopTask_attributes                      0x08006c34   Data          36  main.o(.constdata)
    LedTask_attributes                       0x08006c58   Data          36  main.o(.constdata)
    OledTask_attributes                      0x08006c7c   Data          36  main.o(.constdata)
    ButtonProcessTa_attributes               0x08006ca0   Data          36  main.o(.constdata)
    Dht11Task_attributes                     0x08006cc4   Data          36  main.o(.constdata)
    UartTxTask_attributes                    0x08006ce8   Data          36  main.o(.constdata)
    UartRxTask_attributes                    0x08006d0c   Data          36  main.o(.constdata)
    UartCmdInterpre_attributes               0x08006d30   Data          36  main.o(.constdata)
    AHBPrescTable                            0x08006d66   Data          16  system_stm32f1xx.o(.constdata)
    APBPrescTable                            0x08006d76   Data           8  system_stm32f1xx.o(.constdata)
    Region$$Table$$Base                      0x08006de4   Number         0  anon$$obj.o(Region$$Table)
    Region$$Table$$Limit                     0x08006e04   Number         0  anon$$obj.o(Region$$Table)
    qButtonProcess                           0x20000000   Data           4  button_process_task.o(.data)
    qLedParamSet                             0x20000004   Data           4  led_task.o(.data)
    qUiParamSet                              0x20000008   Data           4  oled_task.o(.data)
    qUartGetCmdLineQueue                     0x2000000c   Data           4  uart_task.o(.data)
    LoopTaskHandle                           0x20000314   Data           4  main.o(.data)
    LedTaskHandle                            0x20000318   Data           4  main.o(.data)
    OledTaskHandle                           0x2000031c   Data           4  main.o(.data)
    ButtonProcessTaHandle                    0x20000320   Data           4  main.o(.data)
    Dht11TaskHandle                          0x20000324   Data           4  main.o(.data)
    UartTxTaskHandle                         0x20000328   Data           4  main.o(.data)
    UartRxTaskHandle                         0x2000032c   Data           4  main.o(.data)
    UartCmdInterpreHandle                    0x20000330   Data           4  main.o(.data)
    uwTick                                   0x20000334   Data           4  stm32f1xx_hal.o(.data)
    uwTickPrio                               0x20000338   Data           4  stm32f1xx_hal.o(.data)
    uwTickFreq                               0x2000033c   Data           1  stm32f1xx_hal.o(.data)
    SystemCoreClock                          0x20000340   Data           4  system_stm32f1xx.o(.data)
    pxCurrentTCB                             0x20000344   Data           4  tasks.o(.data)
    astCmdInterpreterDevice                  0x200005d8   Data          12  cmd_interpreter_device.o(.bss)
    astRingBufferDev                         0x200006dc   Data          48  ring_buffer_device.o(.bss)
    huart1                                   0x20000b44   Data          72  main.o(.bss)
    xQueueRegistry                           0x20000b8c   Data          64  queue.o(.bss)
    __initial_sp                             0x20002960   Data           0  startup_stm32f103xb.o(STACK)



==============================================================================

Memory Map of the image

  Image Entry point : 0x080000ed

  Load Region LR_IROM1 (Base: 0x08000000, Size: 0x000071cc, Max: 0x00010000, ABSOLUTE, COMPRESSED[0x00006f74])

    Execution Region ER_IROM1 (Exec base: 0x08000000, Load base: 0x08000000, Size: 0x00006e04, Max: 0x00010000, ABSOLUTE)

    Exec Addr    Load Addr    Size         Type   Attr      Idx    E Section Name        Object

    0x08000000   0x08000000   0x000000ec   Data   RO         1366    RESET               startup_stm32f103xb.o
    0x080000ec   0x080000ec   0x00000000   Code   RO         4885  * .ARM.Collect$$$$00000000  mc_w.l(entry.o)
    0x080000ec   0x080000ec   0x00000004   Code   RO         4906    .ARM.Collect$$$$00000001  mc_w.l(entry2.o)
    0x080000f0   0x080000f0   0x00000004   Code   RO         4909    .ARM.Collect$$$$00000004  mc_w.l(entry5.o)
    0x080000f4   0x080000f4   0x00000000   Code   RO         4911    .ARM.Collect$$$$00000008  mc_w.l(entry7b.o)
    0x080000f4   0x080000f4   0x00000000   Code   RO         4913    .ARM.Collect$$$$0000000A  mc_w.l(entry8b.o)
    0x080000f4   0x080000f4   0x00000008   Code   RO         4914    .ARM.Collect$$$$0000000B  mc_w.l(entry9a.o)
    0x080000fc   0x080000fc   0x00000000   Code   RO         4916    .ARM.Collect$$$$0000000D  mc_w.l(entry10a.o)
    0x080000fc   0x080000fc   0x00000000   Code   RO         4918    .ARM.Collect$$$$0000000F  mc_w.l(entry11a.o)
    0x080000fc   0x080000fc   0x00000004   Code   RO         4907    .ARM.Collect$$$$00002712  mc_w.l(entry2.o)
    0x08000100   0x08000100   0x00000096   Code   RO         4808    .emb_text           port.o
    0x08000196   0x08000196   0x00000002   PAD
    0x08000198   0x08000198   0x00000024   Code   RO         1367    .text               startup_stm32f103xb.o
    0x080001bc   0x080001bc   0x00000024   Code   RO         4890    .text               mc_w.l(memcpya.o)
    0x080001e0   0x080001e0   0x00000024   Code   RO         4894    .text               mc_w.l(memseta.o)
    0x08000204   0x08000204   0x0000001c   Code   RO         4896    .text               mc_w.l(strcmp.o)
    0x08000220   0x08000220   0x00000044   Code   RO         4898    .text               mc_w.l(strtok.o)
    0x08000264   0x08000264   0x00000024   Code   RO         4920    .text               mc_w.l(init.o)
    0x08000288   0x08000288   0x00000056   Code   RO         4930    .text               mc_w.l(__dczerorl2.o)
    0x080002de   0x080002de   0x00000004   Code   RO         1504    i.BusFault_Handler  stm32f1xx_it.o
    0x080002e2   0x080002e2   0x00000002   PAD
    0x080002e4   0x080002e4   0x00000018   Code   RO          347    i.CmdSendString     cmd_interpreter_operation.o
    0x080002fc   0x080002fc   0x00000002   Code   RO         1505    i.DebugMon_Handler  stm32f1xx_it.o
    0x080002fe   0x080002fe   0x00000006   Code   RO         1374    i.Error_Handler     main.o
    0x08000304   0x08000304   0x00000320   Code   RO         1968    i.HAL_GPIO_Init     stm32f1xx_hal_gpio.o
    0x08000624   0x08000624   0x00000010   Code   RO         1970    i.HAL_GPIO_ReadPin  stm32f1xx_hal_gpio.o
    0x08000634   0x08000634   0x0000000c   Code   RO         1972    i.HAL_GPIO_WritePin  stm32f1xx_hal_gpio.o
    0x08000640   0x08000640   0x0000000c   Code   RO         1657    i.HAL_GetTick       stm32f1xx_hal.o
    0x0800064c   0x0800064c   0x00000018   Code   RO         1663    i.HAL_IncTick       stm32f1xx_hal.o
    0x08000664   0x08000664   0x00000028   Code   RO         1664    i.HAL_Init          stm32f1xx_hal.o
    0x0800068c   0x0800068c   0x0000004c   Code   RO         1665    i.HAL_InitTick      stm32f1xx_hal.o
    0x080006d8   0x080006d8   0x00000060   Code   RO         1574    i.HAL_MspInit       stm32f1xx_hal_msp.o
    0x08000738   0x08000738   0x00000020   Code   RO         2128    i.HAL_NVIC_EnableIRQ  stm32f1xx_hal_cortex.o
    0x08000758   0x08000758   0x0000007c   Code   RO         2134    i.HAL_NVIC_SetPriority  stm32f1xx_hal_cortex.o
    0x080007d4   0x080007d4   0x00000028   Code   RO         2135    i.HAL_NVIC_SetPriorityGrouping  stm32f1xx_hal_cortex.o
    0x080007fc   0x080007fc   0x0000018c   Code   RO         1821    i.HAL_RCC_ClockConfig  stm32f1xx_hal_rcc.o
    0x08000988   0x08000988   0x0000000c   Code   RO         1826    i.HAL_RCC_GetHCLKFreq  stm32f1xx_hal_rcc.o
    0x08000994   0x08000994   0x00000020   Code   RO         1828    i.HAL_RCC_GetPCLK1Freq  stm32f1xx_hal_rcc.o
    0x080009b4   0x080009b4   0x00000020   Code   RO         1829    i.HAL_RCC_GetPCLK2Freq  stm32f1xx_hal_rcc.o
    0x080009d4   0x080009d4   0x00000070   Code   RO         1830    i.HAL_RCC_GetSysClockFreq  stm32f1xx_hal_rcc.o
    0x08000a44   0x08000a44   0x00000464   Code   RO         1833    i.HAL_RCC_OscConfig  stm32f1xx_hal_rcc.o
    0x08000ea8   0x08000ea8   0x00000034   Code   RO         2139    i.HAL_SYSTICK_Config  stm32f1xx_hal_cortex.o
    0x08000edc   0x08000edc   0x00000076   Code   RO         2720    i.HAL_UART_Init     stm32f1xx_hal_uart.o
    0x08000f52   0x08000f52   0x00000002   PAD
    0x08000f54   0x08000f54   0x00000098   Code   RO         1576    i.HAL_UART_MspInit  stm32f1xx_hal_msp.o
    0x08000fec   0x08000fec   0x000000be   Code   RO         2728    i.HAL_UART_Transmit  stm32f1xx_hal_uart.o
    0x080010aa   0x080010aa   0x00000004   Code   RO         1506    i.HardFault_Handler  stm32f1xx_it.o
    0x080010ae   0x080010ae   0x00000002   PAD
    0x080010b0   0x080010b0   0x0000013c   Code   RO         1375    i.MX_GPIO_Init      main.o
    0x080011ec   0x080011ec   0x00000038   Code   RO         1376    i.MX_USART1_UART_Init  main.o
    0x08001224   0x08001224   0x00000004   Code   RO         1507    i.MemManage_Handler  stm32f1xx_it.o
    0x08001228   0x08001228   0x00000004   Code   RO         1508    i.NMI_Handler       stm32f1xx_it.o
    0x0800122c   0x0800122c   0x00000028   Code   RO         1834    i.RCC_Delay         stm32f1xx_hal_rcc.o
    0x08001254   0x08001254   0x00000014   Code   RO         1509    i.SysTick_Handler   stm32f1xx_it.o
    0x08001268   0x08001268   0x00000066   Code   RO         1377    i.SystemClock_Config  main.o
    0x080012ce   0x080012ce   0x00000002   Code   RO         3064    i.SystemInit        system_stm32f1xx.o
    0x080012d0   0x080012d0   0x0000006c   Code   RO         2743    i.UART_EndRxTransfer  stm32f1xx_hal_uart.o
    0x0800133c   0x0800133c   0x000000fc   Code   RO         2747    i.UART_SetConfig    stm32f1xx_hal_uart.o
    0x08001438   0x08001438   0x0000008c   Code   RO         2751    i.UART_WaitOnFlagUntilTimeout  stm32f1xx_hal_uart.o
    0x080014c4   0x080014c4   0x00000008   Code   RO         1510    i.USART1_IRQHandler  stm32f1xx_it.o
    0x080014cc   0x080014cc   0x00000004   Code   RO         1511    i.UsageFault_Handler  stm32f1xx_it.o
    0x080014d0   0x080014d0   0x00000010   Code   RO         2141    i.__NVIC_GetPriorityGrouping  stm32f1xx_hal_cortex.o
    0x080014e0   0x080014e0   0x00000028   Code   RO         2142    i.__NVIC_SetPriority  stm32f1xx_hal_cortex.o
    0x08001508   0x08001508   0x00000006   Code   RO         4233    i.__get_IPSR        cmsis_os2.o
    0x0800150e   0x0800150e   0x0000000e   Code   RO         4924    i.__scatterload_copy  mc_w.l(handlers.o)
    0x0800151c   0x0800151c   0x00000002   Code   RO         4925    i.__scatterload_null  mc_w.l(handlers.o)
    0x0800151e   0x0800151e   0x0000000e   Code   RO         4926    i.__scatterload_zeroinit  mc_w.l(handlers.o)
    0x0800152c   0x0800152c   0x00000014   Code   RO          762    i.c_pstDht11GetRunningParam  dht11_device.o
    0x08001540   0x08001540   0x00000014   Code   RO          861    i.c_pstGetLedRunningParam  led_device.o
    0x08001554   0x08001554   0x00000014   Code   RO         1010    i.c_pstRingBufferGetRunningParam  ring_buffer_device.o
    0x08001568   0x08001568   0x00000014   Code   RO         1011    i.c_pstRingBufferGetStaticParam  ring_buffer_device.o
    0x0800157c   0x0800157c   0x00000008   Code   RO         1239    i.c_pucUiGetFrameBuffer  ui_core.o
    0x08001584   0x08001584   0x00000050   Code   RO          648    i.emButtonDeviceInit  button_device.o
    0x080015d4   0x080015d4   0x0000002c   Code   RO          649    i.emButtonGetEvent  button_device.o
    0x08001600   0x08001600   0x00000012   Code   RO          720    i.emCmdInterpreterDevInit  cmd_interpreter_device.o
    0x08001612   0x08001612   0x00000002   PAD
    0x08001614   0x08001614   0x000000f8   Code   RO          721    i.emCmdInterpreterExecute  cmd_interpreter_device.o
    0x0800170c   0x0800170c   0x00000012   Code   RO          764    i.emDht11DevInit    dht11_device.o
    0x0800171e   0x0800171e   0x00000012   Code   RO          862    i.emLedDeviceInit   led_device.o
    0x08001730   0x08001730   0x00000028   Code   RO         1012    i.emRingBufferDevInit  ring_buffer_device.o
    0x08001758   0x08001758   0x000000c4   Code   RO         1013    i.emRingBufferReadSingleElement  ring_buffer_device.o
    0x0800181c   0x0800181c   0x000000c4   Code   RO         1014    i.emRingBufferWriteSingleElement  ring_buffer_device.o
    0x080018e0   0x080018e0   0x000000ec   Code   RO         1378    i.main              main.o
    0x080019cc   0x080019cc   0x0000001e   Code   RO         4234    i.osDelay           cmsis_os2.o
    0x080019ea   0x080019ea   0x00000002   PAD
    0x080019ec   0x080019ec   0x0000002c   Code   RO         4248    i.osKernelInitialize  cmsis_os2.o
    0x08001a18   0x08001a18   0x00000060   Code   RO         4251    i.osKernelStart     cmsis_os2.o
    0x08001a78   0x08001a78   0x000000b8   Code   RO         4293    i.osThreadNew       cmsis_os2.o
    0x08001b30   0x08001b30   0x0000007c   Code   RO         3672    i.prvAddCurrentTaskToDelayedList  tasks.o
    0x08001bac   0x08001bac   0x000000b8   Code   RO         3673    i.prvAddNewTaskToReadyList  tasks.o
    0x08001c64   0x08001c64   0x00000074   Code   RO         4048    i.prvCheckForValidListAndQueue  timers.o
    0x08001cd8   0x08001cd8   0x00000048   Code   RO         3674    i.prvCheckTasksWaitingTermination  tasks.o
    0x08001d20   0x08001d20   0x0000002a   Code   RO         3268    i.prvCopyDataFromQueue  queue.o
    0x08001d4a   0x08001d4a   0x0000007e   Code   RO         3269    i.prvCopyDataToQueue  queue.o
    0x08001dc8   0x08001dc8   0x00000050   Code   RO         3675    i.prvDeleteTCB      tasks.o
    0x08001e18   0x08001e18   0x00000028   Code   RO         4049    i.prvGetNextExpireTime  timers.o
    0x08001e40   0x08001e40   0x0000007c   Code   RO         4753    i.prvHeapInit       heap_4.o
    0x08001ebc   0x08001ebc   0x00000028   Code   RO         3676    i.prvIdleTask       tasks.o
    0x08001ee4   0x08001ee4   0x0000002a   Code   RO         3272    i.prvInitialiseNewQueue  queue.o
    0x08001f0e   0x08001f0e   0x000000be   Code   RO         3677    i.prvInitialiseNewTask  tasks.o
    0x08001fcc   0x08001fcc   0x00000068   Code   RO         3678    i.prvInitialiseTaskLists  tasks.o
    0x08002034   0x08002034   0x00000068   Code   RO         4754    i.prvInsertBlockIntoFreeList  heap_4.o
    0x0800209c   0x0800209c   0x00000058   Code   RO         4051    i.prvInsertTimerInActiveList  timers.o
    0x080020f4   0x080020f4   0x0000001a   Code   RO         3273    i.prvIsQueueEmpty   queue.o
    0x0800210e   0x0800210e   0x0000001e   Code   RO         3274    i.prvIsQueueFull    queue.o
    0x0800212c   0x0800212c   0x00000074   Code   RO         4052    i.prvProcessExpiredTimer  timers.o
    0x080021a0   0x080021a0   0x00000164   Code   RO         4053    i.prvProcessReceivedCommands  timers.o
    0x08002304   0x08002304   0x00000074   Code   RO         4054    i.prvProcessTimerOrBlockTask  timers.o
    0x08002378   0x08002378   0x00000034   Code   RO         3680    i.prvResetNextTaskUnblockTime  tasks.o
    0x080023ac   0x080023ac   0x0000002c   Code   RO         4055    i.prvSampleTimeNow  timers.o
    0x080023d8   0x080023d8   0x000000a4   Code   RO         4056    i.prvSwitchTimerLists  timers.o
    0x0800247c   0x0800247c   0x00000040   Code   RO         4809    i.prvTaskExitError  port.o
    0x080024bc   0x080024bc   0x0000001a   Code   RO         4057    i.prvTimerTask      timers.o
    0x080024d6   0x080024d6   0x0000007e   Code   RO         3275    i.prvUnlockQueue    queue.o
    0x08002554   0x08002554   0x00000008   Code   RO         1186    i.pstGetDht11Frame  ui_frame_dht11.o
    0x0800255c   0x0800255c   0x00000008   Code   RO         1109    i.pstGetLedCtrlFrame  ui_frame_led_ctrl.o
    0x08002564   0x08002564   0x00000008   Code   RO         1062    i.pstGetMainFrame   ui_frame_main.o
    0x0800256c   0x0800256c   0x0000014c   Code   RO         4755    i.pvPortMalloc      heap_4.o
    0x080026b8   0x080026b8   0x00000024   Code   RO         4810    i.pxPortInitialiseStack  port.o
    0x080026dc   0x080026dc   0x00000080   Code   RO          428    i.sGetAverageWithoutMaxAndMin  dht11_operation.o
    0x0800275c   0x0800275c   0x00000024   Code   RO          651    i.s_ucReadButtonRawLevel  button_device.o
    0x08002780   0x08002780   0x00000018   Code   RO          652    i.s_vButtonStaticParamCopy  button_device.o
    0x08002798   0x08002798   0x00000018   Code   RO          722    i.s_vCmdInterpreterStaticParamCopy  cmd_interpreter_device.o
    0x080027b0   0x080027b0   0x00000016   Code   RO          765    i.s_vDelayUs        dht11_device.o
    0x080027c6   0x080027c6   0x00000002   PAD
    0x080027c8   0x080027c8   0x0000001c   Code   RO         1187    i.s_vDht11FrameButtonEnterExecute  ui_frame_dht11.o
    0x080027e4   0x080027e4   0x00000034   Code   RO         1188    i.s_vDht11FrameCallback  ui_frame_dht11.o
    0x08002818   0x08002818   0x00000018   Code   RO          766    i.s_vDht11InitParamCopy  dht11_device.o
    0x08002830   0x08002830   0x00000030   Code   RO         1110    i.s_vLedCtrlFrameButtonCancelExecute  ui_frame_led_ctrl.o
    0x08002860   0x08002860   0x00000034   Code   RO         1111    i.s_vLedCtrlFrameButtonDownExecute  ui_frame_led_ctrl.o
    0x08002894   0x08002894   0x00000044   Code   RO         1112    i.s_vLedCtrlFrameButtonEnterExecute  ui_frame_led_ctrl.o
    0x080028d8   0x080028d8   0x00000034   Code   RO         1113    i.s_vLedCtrlFrameButtonUpExecute  ui_frame_led_ctrl.o
    0x0800290c   0x0800290c   0x00000068   Code   RO         1114    i.s_vLedCtrlFrameCallback  ui_frame_led_ctrl.o
    0x08002974   0x08002974   0x00000018   Code   RO          863    i.s_vLedStaticParamCopy  led_device.o
    0x0800298c   0x0800298c   0x00000038   Code   RO         1063    i.s_vMainFrameButtonEnterExecute  ui_frame_main.o
    0x080029c4   0x080029c4   0x00000050   Code   RO         1064    i.s_vMainFrameCallback  ui_frame_main.o
    0x08002a14   0x08002a14   0x000000ac   Code   RO          923    i.s_vOledIicSendByte  oled_device.o
    0x08002ac0   0x08002ac0   0x00000078   Code   RO          924    i.s_vOledIicStart   oled_device.o
    0x08002b38   0x08002b38   0x0000005c   Code   RO          925    i.s_vOledIicStop    oled_device.o
    0x08002b94   0x08002b94   0x00000040   Code   RO          926    i.s_vOledIicWaitAck  oled_device.o
    0x08002bd4   0x08002bd4   0x00000018   Code   RO          927    i.s_vOledStaticParamInit  oled_device.o
    0x08002bec   0x08002bec   0x0000003e   Code   RO          928    i.s_vOledWriteOneByteCmd  oled_device.o
    0x08002c2a   0x08002c2a   0x0000003e   Code   RO          929    i.s_vOledWriteOneByteData  oled_device.o
    0x08002c68   0x08002c68   0x0000003c   Code   RO         1015    i.s_vRingBufferRunningParamInit  ring_buffer_device.o
    0x08002ca4   0x08002ca4   0x00000018   Code   RO         1016    i.s_vRingBufferStaticParamCopy  ring_buffer_device.o
    0x08002cbc   0x08002cbc   0x00000028   Code   RO         1241    i.s_vUiClearOnePointToBuffer  ui_core.o
    0x08002ce4   0x08002ce4   0x00000028   Code   RO         1242    i.s_vUiDrawOnePointToBuffer  ui_core.o
    0x08002d0c   0x08002d0c   0x000000fc   Code   RO         1243    i.s_vUiWriteOneCharToBuffer  ui_core.o
    0x08002e08   0x08002e08   0x00000048   Code   RO         1244    i.s_vUiWriteStringToBuffer  ui_core.o
    0x08002e50   0x08002e50   0x00000016   Code   RO         1245    i.s_vUpdateFrameToFrameBuffer  ui_core.o
    0x08002e66   0x08002e66   0x0000007c   Code   RO         1246    i.s_vUpdateMenuBoxToFrameBuffer  ui_core.o
    0x08002ee2   0x08002ee2   0x00000018   Code   RO         1247    i.s_vUpdateTextBoxToFrameBuffer  ui_core.o
    0x08002efa   0x08002efa   0x0000002e   Code   RO         1248    i.s_vUpdateWidgetToFrameBuffer  ui_core.o
    0x08002f28   0x08002f28   0x0000008c   Code   RO          767    i.ucDht11ReadBit    dht11_device.o
    0x08002fb4   0x08002fb4   0x000000d8   Code   RO          768    i.ucDht11ReadData   dht11_device.o
    0x0800308c   0x0800308c   0x000000b4   Code   RO          769    i.ucDht11WaitForAck  dht11_device.o
    0x08003140   0x08003140   0x00000038   Code   RO          653    i.ulButtonGetEvents  button_device.o
    0x08003178   0x08003178   0x00000022   Code   RO          348    i.ulStringToUint32  cmd_interpreter_operation.o
    0x0800319a   0x0800319a   0x00000028   Code   RO         3228    i.uxListRemove      list.o
    0x080031c2   0x080031c2   0x00000002   PAD
    0x080031c4   0x080031c4   0x00000018   Code   RO         4305    i.vApplicationGetIdleTaskMemory  cmsis_os2.o
    0x080031dc   0x080031dc   0x00000018   Code   RO         4306    i.vApplicationGetTimerTaskMemory  cmsis_os2.o
    0x080031f4   0x080031f4   0x00000088   Code   RO          303    i.vButtonInit       button_operation.o
    0x0800327c   0x0800327c   0x00000044   Code   RO            1    i.vButtonProcessTask  button_process_task.o
    0x080032c0   0x080032c0   0x00000078   Code   RO          654    i.vButtonRefreshStatus  button_device.o
    0x08003338   0x08003338   0x00000024   Code   RO          304    i.vButtonScan       button_operation.o
    0x0800335c   0x0800335c   0x00000014   Code   RO          305    i.vButtonValueProcess  button_operation.o
    0x08003370   0x08003370   0x00000020   Code   RO         1249    i.vClearFrameBuffer  ui_core.o
    0x08003390   0x08003390   0x00000064   Code   RO          349    i.vCmdInterpreterExecuteCallback_LedBlink_ParamNum2  cmd_interpreter_operation.o
    0x080033f4   0x080033f4   0x00000064   Code   RO          350    i.vCmdInterpreterExecuteCallback_LedBlink_ParamNum3  cmd_interpreter_operation.o
    0x08003458   0x08003458   0x00000050   Code   RO          351    i.vCmdInterpreterExecuteCallback_LedOff  cmd_interpreter_operation.o
    0x080034a8   0x080034a8   0x00000050   Code   RO          352    i.vCmdInterpreterExecuteCallback_LedOn  cmd_interpreter_operation.o
    0x080034f8   0x080034f8   0x00000064   Code   RO          353    i.vCmdInterpreterExecuteCallback_LedToggle  cmd_interpreter_operation.o
    0x0800355c   0x0800355c   0x00000018   Code   RO          354    i.vCmdInterpreterInit  cmd_interpreter_operation.o
    0x08003574   0x08003574   0x0000000e   Code   RO          355    i.vCmdInterpreterOperationExecute  cmd_interpreter_operation.o
    0x08003582   0x08003582   0x00000002   PAD
    0x08003584   0x08003584   0x00000044   Code   RO         1189    i.vDht11FrameInit   ui_frame_dht11.o
    0x080035c8   0x080035c8   0x00000064   Code   RO         1190    i.vDht11FrameUpdateHumidityValue  ui_frame_dht11.o
    0x0800362c   0x0800362c   0x00000064   Code   RO         1191    i.vDht11FrameUpdateTemperatureValue  ui_frame_dht11.o
    0x08003690   0x08003690   0x00000018   Code   RO          429    i.vDht11Init        dht11_operation.o
    0x080036a8   0x080036a8   0x000000b8   Code   RO          430    i.vDht11RefreshData  dht11_operation.o
    0x08003760   0x08003760   0x00000034   Code   RO          770    i.vDht11SetPinDirInput  dht11_device.o
    0x08003794   0x08003794   0x00000030   Code   RO          771    i.vDht11SetPinDirOutput  dht11_device.o
    0x080037c4   0x080037c4   0x00000024   Code   RO          772    i.vDht11Start       dht11_device.o
    0x080037e8   0x080037e8   0x00000012   Code   RO           64    i.vDht11Task        dht11_task.o
    0x080037fa   0x080037fa   0x00000002   PAD
    0x080037fc   0x080037fc   0x00000028   Code   RO          773    i.vDht11WritePinHigh  dht11_device.o
    0x08003824   0x08003824   0x00000028   Code   RO          774    i.vDht11WritePinLow  dht11_device.o
    0x0800384c   0x0800384c   0x00000044   Code   RO         1115    i.vLedCtrlFrameInit  ui_frame_led_ctrl.o
    0x08003890   0x08003890   0x00000038   Code   RO         1116    i.vLedCtrlRequestLedOff  ui_frame_led_ctrl.o
    0x080038c8   0x080038c8   0x00000038   Code   RO         1117    i.vLedCtrlRequestLedOn  ui_frame_led_ctrl.o
    0x08003900   0x08003900   0x000000b0   Code   RO          864    i.vLedExecute       led_device.o
    0x080039b0   0x080039b0   0x000001fc   Code   RO          493    i.vLedInit          led_operation.o
    0x08003bac   0x08003bac   0x00000016   Code   RO          494    i.vLedOperationExecute  led_operation.o
    0x08003bc2   0x08003bc2   0x0000000e   Code   RO          495    i.vLedOperationParamUpdate  led_operation.o
    0x08003bd0   0x08003bd0   0x00000048   Code   RO          865    i.vLedRefreshOutputLevel  led_device.o
    0x08003c18   0x08003c18   0x00000074   Code   RO          866    i.vLedSetRunningParam  led_device.o
    0x08003c8c   0x08003c8c   0x0000003c   Code   RO          179    i.vLedTask          led_task.o
    0x08003cc8   0x08003cc8   0x0000001a   Code   RO         3229    i.vListInitialise   list.o
    0x08003ce2   0x08003ce2   0x00000006   Code   RO         3230    i.vListInitialiseItem  list.o
    0x08003ce8   0x08003ce8   0x00000034   Code   RO         3231    i.vListInsert       list.o
    0x08003d1c   0x08003d1c   0x00000018   Code   RO         3232    i.vListInsertEnd    list.o
    0x08003d34   0x08003d34   0x00000012   Code   RO          215    i.vLoopTask         loop_task.o
    0x08003d46   0x08003d46   0x00000002   PAD
    0x08003d48   0x08003d48   0x00000020   Code   RO         1065    i.vMainFrameInit    ui_frame_main.o
    0x08003d68   0x08003d68   0x000000e6   Code   RO          930    i.vOledCmdInit      oled_device.o
    0x08003e4e   0x08003e4e   0x00000016   Code   RO          931    i.vOledDeviceInit   oled_device.o
    0x08003e64   0x08003e64   0x00000014   Code   RO          530    i.vOledExecuteCurrentFrameCallback  oled_operation.o
    0x08003e78   0x08003e78   0x00000024   Code   RO          531    i.vOledInit         oled_operation.o
    0x08003e9c   0x08003e9c   0x0000001c   Code   RO          532    i.vOledRefreshCurrentFrame  oled_operation.o
    0x08003eb8   0x08003eb8   0x00000054   Code   RO          934    i.vOledRefreshFromBuffer  oled_device.o
    0x08003f0c   0x08003f0c   0x00000044   Code   RO          230    i.vOledTask         oled_task.o
    0x08003f50   0x08003f50   0x00000054   Code   RO         4812    i.vPortEnterCritical  port.o
    0x08003fa4   0x08003fa4   0x0000003c   Code   RO         4813    i.vPortExitCritical  port.o
    0x08003fe0   0x08003fe0   0x000000a4   Code   RO         4756    i.vPortFree         heap_4.o
    0x08004084   0x08004084   0x00000028   Code   RO         4814    i.vPortSetupTimerInterrupt  port.o
    0x080040ac   0x080040ac   0x00000078   Code   RO         4815    i.vPortValidateInterruptPriority  port.o
    0x08004124   0x08004124   0x0000002c   Code   RO         3281    i.vQueueAddToRegistry  queue.o
    0x08004150   0x08004150   0x0000004a   Code   RO         3285    i.vQueueWaitForMessageRestricted  queue.o
    0x0800419a   0x0800419a   0x00000002   PAD
    0x0800419c   0x0800419c   0x0000005c   Code   RO         3693    i.vTaskDelay        tasks.o
    0x080041f8   0x080041f8   0x00000018   Code   RO         3698    i.vTaskInternalSetTimeOutState  tasks.o
    0x08004210   0x08004210   0x0000000c   Code   RO         3699    i.vTaskMissedYield  tasks.o
    0x0800421c   0x0800421c   0x00000038   Code   RO         3701    i.vTaskPlaceOnEventList  tasks.o
    0x08004254   0x08004254   0x00000040   Code   RO         3702    i.vTaskPlaceOnEventListRestricted  tasks.o
    0x08004294   0x08004294   0x000000b8   Code   RO         3710    i.vTaskStartScheduler  tasks.o
    0x0800434c   0x0800434c   0x00000010   Code   RO         3712    i.vTaskSuspendAll   tasks.o
    0x0800435c   0x0800435c   0x00000090   Code   RO         3713    i.vTaskSwitchContext  tasks.o
    0x080043ec   0x080043ec   0x00000038   Code   RO          596    i.vUart1InterruptCallback  uart_operation.o
    0x08004424   0x08004424   0x00000028   Code   RO          264    i.vUartCmdInterpreterTask  uart_task.o
    0x0800444c   0x0800444c   0x0000007c   Code   RO          597    i.vUartGetCmdLine   uart_operation.o
    0x080044c8   0x080044c8   0x00000048   Code   RO          598    i.vUartInit         uart_operation.o
    0x08004510   0x08004510   0x00000024   Code   RO          265    i.vUartRxTask       uart_task.o
    0x08004534   0x08004534   0x00000030   Code   RO          599    i.vUartSendAllBufferData  uart_operation.o
    0x08004564   0x08004564   0x0000000e   Code   RO          266    i.vUartTxTask       uart_task.o
    0x08004572   0x08004572   0x00000020   Code   RO         1251    i.vUiAddOneWidgetToFrameAsTailWidgetNode  ui_core.o
    0x08004592   0x08004592   0x0000000c   Code   RO          533    i.vUiClearFrame     oled_operation.o
    0x0800459e   0x0800459e   0x00000016   Code   RO         1252    i.vUiFrameCallbackExecute  ui_core.o
    0x080045b4   0x080045b4   0x0000003c   Code   RO          534    i.vUiInit           oled_operation.o
    0x080045f0   0x080045f0   0x00000032   Code   RO         1253    i.vUiMenuBoxExecuteSelectDec  ui_core.o
    0x08004622   0x08004622   0x0000003e   Code   RO         1254    i.vUiMenuBoxExecuteSelectInc  ui_core.o
    0x08004660   0x08004660   0x0000000c   Code   RO          535    i.vUiSetCurrentFrame  oled_operation.o
    0x0800466c   0x0800466c   0x00000012   Code   RO         1257    i.vUpdateUiObjectToFrameBuffer  ui_core.o
    0x0800467e   0x0800467e   0x00000002   PAD
    0x08004680   0x08004680   0x000000f8   Code   RO         4816    i.xPortStartScheduler  port.o
    0x08004778   0x08004778   0x00000034   Code   RO         4817    i.xPortSysTickHandler  port.o
    0x080047ac   0x080047ac   0x0000005a   Code   RO         3290    i.xQueueGenericCreate  queue.o
    0x08004806   0x08004806   0x000000e0   Code   RO         3291    i.xQueueGenericCreateStatic  queue.o
    0x080048e6   0x080048e6   0x00000002   PAD
    0x080048e8   0x080048e8   0x00000098   Code   RO         3292    i.xQueueGenericReset  queue.o
    0x08004980   0x08004980   0x000001a8   Code   RO         3293    i.xQueueGenericSend  queue.o
    0x08004b28   0x08004b28   0x000000fc   Code   RO         3294    i.xQueueGenericSendFromISR  queue.o
    0x08004c24   0x08004c24   0x00000168   Code   RO         3303    i.xQueueReceive     queue.o
    0x08004d8c   0x08004d8c   0x0000008c   Code   RO         3715    i.xTaskCheckForTimeOut  tasks.o
    0x08004e18   0x08004e18   0x00000064   Code   RO         3716    i.xTaskCreate       tasks.o
    0x08004e7c   0x08004e7c   0x000000ba   Code   RO         3717    i.xTaskCreateStatic  tasks.o
    0x08004f36   0x08004f36   0x00000002   PAD
    0x08004f38   0x08004f38   0x00000020   Code   RO         3721    i.xTaskGetSchedulerState  tasks.o
    0x08004f58   0x08004f58   0x0000000c   Code   RO         3722    i.xTaskGetTickCount  tasks.o
    0x08004f64   0x08004f64   0x00000144   Code   RO         3724    i.xTaskIncrementTick  tasks.o
    0x080050a8   0x080050a8   0x000000a4   Code   RO         3727    i.xTaskPriorityDisinherit  tasks.o
    0x0800514c   0x0800514c   0x00000098   Code   RO         3729    i.xTaskRemoveFromEventList  tasks.o
    0x080051e4   0x080051e4   0x00000104   Code   RO         3730    i.xTaskResumeAll    tasks.o
    0x080052e8   0x080052e8   0x00000078   Code   RO         4066    i.xTimerCreateTimerTask  timers.o
    0x08005360   0x08005360   0x00000084   Code   RO         4067    i.xTimerGenericCommand  timers.o
    0x080053e4   0x080053e4   0x00000090   Data   RO          357    .constdata          cmd_interpreter_operation.o
    0x08005474   0x08005474   0x000017c0   Data   RO         1352    .constdata          ui_font.o
    0x08006c34   0x08006c34   0x00000120   Data   RO         1388    .constdata          main.o
    0x08006d54   0x08006d54   0x00000012   Data   RO         1835    .constdata          stm32f1xx_hal_rcc.o
    0x08006d66   0x08006d66   0x00000018   Data   RO         3065    .constdata          system_stm32f1xx.o
    0x08006d7e   0x08006d7e   0x00000002   PAD
    0x08006d80   0x08006d80   0x00000063   Data   RO         1389    .conststring        main.o
    0x08006de3   0x08006de3   0x00000001   PAD
    0x08006de4   0x08006de4   0x00000020   Data   RO         4922    Region$$Table       anon$$obj.o


    Execution Region RW_IRAM1 (Exec base: 0x20000000, Load base: 0x08006e04, Size: 0x00002960, Max: 0x00005000, ABSOLUTE, COMPRESSED[0x00000170])

    Exec Addr    Load Addr    Size         Type   Attr      Idx    E Section Name        Object

    0x20000000   COMPRESSED   0x00000004   Data   RW            2    .data               button_process_task.o
    0x20000004   COMPRESSED   0x00000004   Data   RW          180    .data               led_task.o
    0x20000008   COMPRESSED   0x00000004   Data   RW          231    .data               oled_task.o
    0x2000000c   COMPRESSED   0x00000004   Data   RW          267    .data               uart_task.o
    0x20000010   COMPRESSED   0x00000008   Data   RW          306    .data               button_operation.o
    0x20000018   COMPRESSED   0x00000001   Data   RW          432    .data               dht11_operation.o
    0x20000019   COMPRESSED   0x00000003   PAD
    0x2000001c   COMPRESSED   0x00000008   Data   RW          537    .data               oled_operation.o
    0x20000024   COMPRESSED   0x00000001   Data   RW          601    .data               uart_operation.o
    0x20000025   COMPRESSED   0x00000003   PAD
    0x20000028   COMPRESSED   0x000001cc   Data   RW         1067    .data               ui_frame_main.o
    0x200001f4   COMPRESSED   0x00000082   Data   RW         1119    .data               ui_frame_led_ctrl.o
    0x20000276   COMPRESSED   0x00000002   PAD
    0x20000278   COMPRESSED   0x0000009c   Data   RW         1193    .data               ui_frame_dht11.o
    0x20000314   COMPRESSED   0x00000020   Data   RW         1390    .data               main.o
    0x20000334   COMPRESSED   0x00000009   Data   RW         1671    .data               stm32f1xx_hal.o
    0x2000033d   COMPRESSED   0x00000003   PAD
    0x20000340   COMPRESSED   0x00000004   Data   RW         3066    .data               system_stm32f1xx.o
    0x20000344   COMPRESSED   0x0000003c   Data   RW         3733    .data               tasks.o
    0x20000380   COMPRESSED   0x00000014   Data   RW         4075    .data               timers.o
    0x20000394   COMPRESSED   0x00000004   Data   RW         4308    .data               cmsis_os2.o
    0x20000398   COMPRESSED   0x00000020   Data   RW         4762    .data               heap_4.o
    0x200003b8   COMPRESSED   0x0000000c   Data   RW         4818    .data               port.o
    0x200003c4   COMPRESSED   0x00000004   Data   RW         4899    .data               mc_w.l(strtok.o)
    0x200003c8        -       0x00000014   Zero   RW          356    .bss                cmd_interpreter_operation.o
    0x200003dc        -       0x000000a4   Zero   RW          431    .bss                dht11_operation.o
    0x20000480        -       0x0000000c   Zero   RW          536    .bss                oled_operation.o
    0x2000048c        -       0x000000fa   Zero   RW          600    .bss                uart_operation.o
    0x20000586   COMPRESSED   0x00000002   PAD
    0x20000588        -       0x00000050   Zero   RW          656    .bss                button_device.o
    0x200005d8        -       0x0000000c   Zero   RW          723    .bss                cmd_interpreter_device.o
    0x200005e4        -       0x0000000c   Zero   RW          775    .bss                dht11_device.o
    0x200005f0        -       0x000000d8   Zero   RW          868    .bss                led_device.o
    0x200006c8        -       0x00000014   Zero   RW          935    .bss                oled_device.o
    0x200006dc        -       0x00000030   Zero   RW         1017    .bss                ring_buffer_device.o
    0x2000070c        -       0x0000000c   Zero   RW         1066    .bss                ui_frame_main.o
    0x20000718        -       0x00000020   Zero   RW         1118    .bss                ui_frame_led_ctrl.o
    0x20000738        -       0x0000000c   Zero   RW         1192    .bss                ui_frame_dht11.o
    0x20000744        -       0x00000400   Zero   RW         1258    .bss                ui_core.o
    0x20000b44        -       0x00000048   Zero   RW         1387    .bss                main.o
    0x20000b8c        -       0x00000040   Zero   RW         3307    .bss                queue.o
    0x20000bcc        -       0x000004c4   Zero   RW         3732    .bss                tasks.o
    0x20001090        -       0x00000118   Zero   RW         4074    .bss                timers.o
    0x200011a8        -       0x000003b8   Zero   RW         4307    .bss                cmsis_os2.o
    0x20001560        -       0x00001000   Zero   RW         4761    .bss                heap_4.o
    0x20002560        -       0x00000400   Zero   RW         1364    STACK               startup_stm32f103xb.o


==============================================================================

Image component sizes


      Code (inc. data)   RO Data    RW Data    ZI Data      Debug   Object Name

       360         26          0          0         80       5687   button_device.o
       192         22          0          8          0       2918   button_operation.o
        68          6          0          4          0      14970   button_process_task.o
       290         12          0          0         12       4078   cmd_interpreter_device.o
       556         98        144          0         20       8140   cmd_interpreter_operation.o
       408         40          0          4        952      54377   cmsis_os2.o
       836         46          0          0         12       8830   dht11_device.o
       336         14          0          1        164       5123   dht11_operation.o
        18          0          0          0          0     394029   dht11_task.o
         0          0          0          0          0      19664   event_groups.o
       724         74          0         32       4096       4811   heap_4.o
       426         20          0          0        216       4001   led_device.o
       544         14          0          0          0       2488   led_operation.o
        60          6          0          4          0       2930   led_task.o
       148          0          0          0          0       3466   list.o
        18          0          0          0          0        444   loop_task.o
       716        124        387         32         72       7961   main.o
       932         26          0          0         20       6274   oled_device.o
       168         32          0          8         12       5653   oled_operation.o
        68          4          0          4          0       2170   oled_task.o
       854         78          0         12          0      11013   port.o
      2012         20          0          0         64      18126   queue.o
       556         28          0          0         48       5051   ring_buffer_device.o
        36          8        236          0       1024        780   startup_stm32f103xb.o
       152         32          0          9          0       5341   stm32f1xx_hal.o
       304         22          0          0          0      29475   stm32f1xx_hal_cortex.o
       828         34          0          0          0       3351   stm32f1xx_hal_gpio.o
       248         24          0          0          0       1629   stm32f1xx_hal_msp.o
      1748         98         18          0          0       6040   stm32f1xx_hal_rcc.o
       808          4          0          0          0       4432   stm32f1xx_hal_uart.o
        50          0          0          0          0       3619   stm32f1xx_it.o
         2          0         24          4          0       1143   system_stm32f1xx.o
      2808        346          0         60       1220      26874   tasks.o
      1318        124          0         20        280      30351   timers.o
       300         36          0          1        250       4563   uart_operation.o
        90          8          0          4          0       2149   uart_task.o
       844         34          0          0       1024       9620   ui_core.o
         0          0       6080          0          0        750   ui_font.o
       356         44          0        156         12       4672   ui_frame_dht11.o
       512        110          0        130         32       7743   ui_frame_led_ctrl.o
       176         32          0        460         12       5133   ui_frame_main.o

    ----------------------------------------------------------------------
     20900       1646       6924        964       9624     739869   Object Totals
         0          0         32          0          0          0   (incl. Generated)
        30          0          3         11          2          0   (incl. Padding)

    ----------------------------------------------------------------------

      Code (inc. data)   RO Data    RW Data    ZI Data      Debug   Library Member Name

        86          0          0          0          0          0   __dczerorl2.o
         0          0          0          0          0          0   entry.o
         0          0          0          0          0          0   entry10a.o
         0          0          0          0          0          0   entry11a.o
         8          4          0          0          0          0   entry2.o
         4          0          0          0          0          0   entry5.o
         0          0          0          0          0          0   entry7b.o
         0          0          0          0          0          0   entry8b.o
         8          4          0          0          0          0   entry9a.o
        30          0          0          0          0          0   handlers.o
        36          8          0          0          0         68   init.o
        36          0          0          0          0         68   memcpya.o
        36          0          0          0          0        108   memseta.o
        28          0          0          0          0         76   strcmp.o
        68          6          0          4          0         80   strtok.o

    ----------------------------------------------------------------------
       340         22          0          4          0        400   Library Totals
         0          0          0          0          0          0   (incl. Padding)

    ----------------------------------------------------------------------

      Code (inc. data)   RO Data    RW Data    ZI Data      Debug   Library Name

       340         22          0          4          0        400   mc_w.l

    ----------------------------------------------------------------------
       340         22          0          4          0        400   Library Totals

    ----------------------------------------------------------------------

==============================================================================


      Code (inc. data)   RO Data    RW Data    ZI Data      Debug   

     21240       1668       6924        968       9624     728645   Grand Totals
     21240       1668       6924        368       9624     728645   ELF Image Totals (compressed)
     21240       1668       6924        368          0          0   ROM Totals

==============================================================================

    Total RO  Size (Code + RO Data)                28164 (  27.50kB)
    Total RW  Size (RW Data + ZI Data)             10592 (  10.34kB)
    Total ROM Size (Code + RO Data + RW Data)      28532 (  27.86kB)

==============================================================================

